   1              		.syntax unified
   2              		.cpu cortex-m3
   3              		.fpu softvfp
   4              		.eabi_attribute 20, 1
   5              		.eabi_attribute 21, 1
   6              		.eabi_attribute 23, 3
   7              		.eabi_attribute 24, 1
   8              		.eabi_attribute 25, 1
   9              		.eabi_attribute 26, 1
  10              		.eabi_attribute 30, 6
  11              		.eabi_attribute 34, 1
  12              		.eabi_attribute 18, 4
  13              		.thumb
  14              		.file	"porttimer.c"
  15              		.text
  16              	.Ltext0:
  17              		.cfi_sections	.debug_frame
  18              		.section	.text.xMBPortTimersInit,"ax",%progbits
  19              		.align	2
  20              		.global	xMBPortTimersInit
  21              		.thumb
  22              		.thumb_func
  24              	xMBPortTimersInit:
  25              	.LFB29:
  26              		.file 1 "../FreeModbus/STM32/port/porttimer.c"
   1:../FreeModbus/STM32/port/porttimer.c **** /*
   2:../FreeModbus/STM32/port/porttimer.c ****  * FreeModbus Libary: BARE Port
   3:../FreeModbus/STM32/port/porttimer.c ****  * Copyright (C) 2006 Christian Walter <wolti@sil.at>
   4:../FreeModbus/STM32/port/porttimer.c ****  *
   5:../FreeModbus/STM32/port/porttimer.c ****  * This library is free software; you can redistribute it and/or
   6:../FreeModbus/STM32/port/porttimer.c ****  * modify it under the terms of the GNU Lesser General Public
   7:../FreeModbus/STM32/port/porttimer.c ****  * License as published by the Free Software Foundation; either
   8:../FreeModbus/STM32/port/porttimer.c ****  * version 2.1 of the License, or (at your option) any later version.
   9:../FreeModbus/STM32/port/porttimer.c ****  *
  10:../FreeModbus/STM32/port/porttimer.c ****  * This library is distributed in the hope that it will be useful,
  11:../FreeModbus/STM32/port/porttimer.c ****  * but WITHOUT ANY WARRANTY; without even the implied warranty of
  12:../FreeModbus/STM32/port/porttimer.c ****  * MERCHANTABILITY or FITNESS FOR A PARTICULAR PURPOSE.  See the GNU
  13:../FreeModbus/STM32/port/porttimer.c ****  * Lesser General Public License for more details.
  14:../FreeModbus/STM32/port/porttimer.c ****  *
  15:../FreeModbus/STM32/port/porttimer.c ****  * You should have received a copy of the GNU Lesser General Public
  16:../FreeModbus/STM32/port/porttimer.c ****  * License along with this library; if not, write to the Free Software
  17:../FreeModbus/STM32/port/porttimer.c ****  * Foundation, Inc., 51 Franklin St, Fifth Floor, Boston, MA  02110-1301  USA
  18:../FreeModbus/STM32/port/porttimer.c ****  *
  19:../FreeModbus/STM32/port/porttimer.c ****  * File: $Id: porttimer.c,v 1.1 2006/08/22 21:35:13 wolti Exp $
  20:../FreeModbus/STM32/port/porttimer.c ****  */
  21:../FreeModbus/STM32/port/porttimer.c **** 
  22:../FreeModbus/STM32/port/porttimer.c **** /* ----------------------- Platform includes --------------------------------*/
  23:../FreeModbus/STM32/port/porttimer.c **** #include "port.h"
  24:../FreeModbus/STM32/port/porttimer.c **** 
  25:../FreeModbus/STM32/port/porttimer.c **** /* ----------------------- Modbus includes ----------------------------------*/
  26:../FreeModbus/STM32/port/porttimer.c **** #include "mb.h"
  27:../FreeModbus/STM32/port/porttimer.c **** #include "mbport.h"
  28:../FreeModbus/STM32/port/porttimer.c **** 
  29:../FreeModbus/STM32/port/porttimer.c **** /* ----------------------- static functions ---------------------------------*/
  30:../FreeModbus/STM32/port/porttimer.c **** static void prvvTIMERExpiredISR( void );
  31:../FreeModbus/STM32/port/porttimer.c **** 
  32:../FreeModbus/STM32/port/porttimer.c **** /* ----------------------- Start implementation -----------------------------*/
  33:../FreeModbus/STM32/port/porttimer.c **** BOOL
  34:../FreeModbus/STM32/port/porttimer.c **** xMBPortTimersInit( USHORT usTim1Timerout50us )
  35:../FreeModbus/STM32/port/porttimer.c **** {
  27              		.loc 1 35 0
  28              		.cfi_startproc
  29              		@ args = 0, pretend = 0, frame = 24
  30              		@ frame_needed = 1, uses_anonymous_args = 0
  31 0000 80B5     		push	{r7, lr}
  32              	.LCFI0:
  33              		.cfi_def_cfa_offset 8
  34              		.cfi_offset 7, -8
  35              		.cfi_offset 14, -4
  36 0002 86B0     		sub	sp, sp, #24
  37              	.LCFI1:
  38              		.cfi_def_cfa_offset 32
  39 0004 00AF     		add	r7, sp, #0
  40              	.LCFI2:
  41              		.cfi_def_cfa_register 7
  42 0006 0346     		mov	r3, r0
  43 0008 FB80     		strh	r3, [r7, #6]	@ movhi
  36:../FreeModbus/STM32/port/porttimer.c **** 	TIM_TimeBaseInitTypeDef  TIM_TimeBaseStructure;
  37:../FreeModbus/STM32/port/porttimer.c **** 	NVIC_InitTypeDef NVIC_InitStructure;
  38:../FreeModbus/STM32/port/porttimer.c **** 	uint16_t PrescalerValue = 0;
  44              		.loc 1 38 0
  45 000a 4FF00003 		mov	r3, #0
  46 000e FB82     		strh	r3, [r7, #22]	@ movhi
  39:../FreeModbus/STM32/port/porttimer.c **** 
  40:../FreeModbus/STM32/port/porttimer.c **** 	/* TIM4 clock enable */
  41:../FreeModbus/STM32/port/porttimer.c **** 	RCC_APB1PeriphClockCmd(RCC_APB1Periph_TIM7, ENABLE);
  47              		.loc 1 41 0
  48 0010 4FF02000 		mov	r0, #32
  49 0014 4FF00101 		mov	r1, #1
  50 0018 FFF7FEFF 		bl	RCC_APB1PeriphClockCmd
  42:../FreeModbus/STM32/port/porttimer.c **** 	/* Compute the prescaler value */
  43:../FreeModbus/STM32/port/porttimer.c **** 	PrescalerValue = (uint16_t) (SystemCoreClock / 20000) - 1; // 1/20000=50us
  51              		.loc 1 43 0
  52 001c 40F20003 		movw	r3, #:lower16:SystemCoreClock
  53 0020 C0F20003 		movt	r3, #:upper16:SystemCoreClock
  54 0024 1A68     		ldr	r2, [r3, #0]
  55 0026 41F25973 		movw	r3, #5977
  56 002a CDF2B713 		movt	r3, 53687
  57 002e A3FB0213 		umull	r1, r3, r3, r2
  58 0032 4FEA9333 		lsr	r3, r3, #14
  59 0036 9BB2     		uxth	r3, r3
  60 0038 03F1FF33 		add	r3, r3, #-1
  61 003c FB82     		strh	r3, [r7, #22]	@ movhi
  44:../FreeModbus/STM32/port/porttimer.c **** 	/* Time base configuration */
  45:../FreeModbus/STM32/port/porttimer.c **** 	TIM_TimeBaseStructure.TIM_Period = (uint16_t) usTim1Timerout50us;
  62              		.loc 1 45 0
  63 003e FB88     		ldrh	r3, [r7, #6]	@ movhi
  64 0040 3B82     		strh	r3, [r7, #16]	@ movhi
  46:../FreeModbus/STM32/port/porttimer.c **** 	TIM_TimeBaseStructure.TIM_Prescaler = PrescalerValue;
  65              		.loc 1 46 0
  66 0042 FB8A     		ldrh	r3, [r7, #22]	@ movhi
  67 0044 BB81     		strh	r3, [r7, #12]	@ movhi
  47:../FreeModbus/STM32/port/porttimer.c **** 	TIM_TimeBaseStructure.TIM_ClockDivision = 0;
  68              		.loc 1 47 0
  69 0046 4FF00003 		mov	r3, #0
  70 004a 7B82     		strh	r3, [r7, #18]	@ movhi
  48:../FreeModbus/STM32/port/porttimer.c **** 	TIM_TimeBaseStructure.TIM_CounterMode = TIM_CounterMode_Up;
  71              		.loc 1 48 0
  72 004c 4FF00003 		mov	r3, #0
  73 0050 FB81     		strh	r3, [r7, #14]	@ movhi
  49:../FreeModbus/STM32/port/porttimer.c **** 	TIM_TimeBaseInit(TIM4, &TIM_TimeBaseStructure);
  74              		.loc 1 49 0
  75 0052 07F10C03 		add	r3, r7, #12
  76 0056 4FF40060 		mov	r0, #2048
  77 005a C4F20000 		movt	r0, 16384
  78 005e 1946     		mov	r1, r3
  79 0060 FFF7FEFF 		bl	TIM_TimeBaseInit
  50:../FreeModbus/STM32/port/porttimer.c **** 
  51:../FreeModbus/STM32/port/porttimer.c **** 	TIM_ARRPreloadConfig(TIM7, ENABLE);
  80              		.loc 1 51 0
  81 0064 4FF4A050 		mov	r0, #5120
  82 0068 C4F20000 		movt	r0, 16384
  83 006c 4FF00101 		mov	r1, #1
  84 0070 FFF7FEFF 		bl	TIM_ARRPreloadConfig
  52:../FreeModbus/STM32/port/porttimer.c **** 
  53:../FreeModbus/STM32/port/porttimer.c **** 	/* Configure one bit for preemption priority */
  54:../FreeModbus/STM32/port/porttimer.c **** 	NVIC_PriorityGroupConfig(NVIC_PriorityGroup_1);
  85              		.loc 1 54 0
  86 0074 4FF4C060 		mov	r0, #1536
  87 0078 FFF7FEFF 		bl	NVIC_PriorityGroupConfig
  55:../FreeModbus/STM32/port/porttimer.c **** 	/* Enable the TIM4 Interrupt */
  56:../FreeModbus/STM32/port/porttimer.c **** 	NVIC_InitStructure.NVIC_IRQChannel = TIM7_IRQn;
  88              		.loc 1 56 0
  89 007c 4FF03703 		mov	r3, #55
  90 0080 3B72     		strb	r3, [r7, #8]
  57:../FreeModbus/STM32/port/porttimer.c **** 	NVIC_InitStructure.NVIC_IRQChannelPreemptionPriority = 0;
  91              		.loc 1 57 0
  92 0082 4FF00003 		mov	r3, #0
  93 0086 7B72     		strb	r3, [r7, #9]
  58:../FreeModbus/STM32/port/porttimer.c **** 	NVIC_InitStructure.NVIC_IRQChannelSubPriority = 3;
  94              		.loc 1 58 0
  95 0088 4FF00303 		mov	r3, #3
  96 008c BB72     		strb	r3, [r7, #10]
  59:../FreeModbus/STM32/port/porttimer.c **** 	NVIC_InitStructure.NVIC_IRQChannelCmd = ENABLE;
  97              		.loc 1 59 0
  98 008e 4FF00103 		mov	r3, #1
  99 0092 FB72     		strb	r3, [r7, #11]
  60:../FreeModbus/STM32/port/porttimer.c **** 
  61:../FreeModbus/STM32/port/porttimer.c **** 	NVIC_Init(&NVIC_InitStructure);
 100              		.loc 1 61 0
 101 0094 07F10803 		add	r3, r7, #8
 102 0098 1846     		mov	r0, r3
 103 009a FFF7FEFF 		bl	NVIC_Init
  62:../FreeModbus/STM32/port/porttimer.c **** 
  63:../FreeModbus/STM32/port/porttimer.c **** 	/* TIM IT DISABLE */
  64:../FreeModbus/STM32/port/porttimer.c **** 	TIM_ClearITPendingBit(TIM7,TIM_IT_Update);
 104              		.loc 1 64 0
 105 009e 4FF4A050 		mov	r0, #5120
 106 00a2 C4F20000 		movt	r0, 16384
 107 00a6 4FF00101 		mov	r1, #1
 108 00aa FFF7FEFF 		bl	TIM_ClearITPendingBit
  65:../FreeModbus/STM32/port/porttimer.c **** 	TIM_ITConfig(TIM7, TIM_IT_Update, DISABLE);
 109              		.loc 1 65 0
 110 00ae 4FF4A050 		mov	r0, #5120
 111 00b2 C4F20000 		movt	r0, 16384
 112 00b6 4FF00101 		mov	r1, #1
 113 00ba 4FF00002 		mov	r2, #0
 114 00be FFF7FEFF 		bl	TIM_ITConfig
  66:../FreeModbus/STM32/port/porttimer.c **** 	/* TIM4 DISABLE counter */
  67:../FreeModbus/STM32/port/porttimer.c **** 	TIM_Cmd(TIM7,  DISABLE);
 115              		.loc 1 67 0
 116 00c2 4FF4A050 		mov	r0, #5120
 117 00c6 C4F20000 		movt	r0, 16384
 118 00ca 4FF00001 		mov	r1, #0
 119 00ce FFF7FEFF 		bl	TIM_Cmd
  68:../FreeModbus/STM32/port/porttimer.c **** 	return TRUE;;
 120              		.loc 1 68 0
 121 00d2 4FF00103 		mov	r3, #1
  69:../FreeModbus/STM32/port/porttimer.c **** }
 122              		.loc 1 69 0
 123 00d6 1846     		mov	r0, r3
 124 00d8 07F11807 		add	r7, r7, #24
 125 00dc BD46     		mov	sp, r7
 126 00de 80BD     		pop	{r7, pc}
 127              		.cfi_endproc
 128              	.LFE29:
 130              		.section	.text.vMBPortTimersEnable,"ax",%progbits
 131              		.align	2
 132              		.global	vMBPortTimersEnable
 133              		.thumb
 134              		.thumb_func
 136              	vMBPortTimersEnable:
 137              	.LFB30:
  70:../FreeModbus/STM32/port/porttimer.c **** 
  71:../FreeModbus/STM32/port/porttimer.c **** 
  72:../FreeModbus/STM32/port/porttimer.c **** inline void
  73:../FreeModbus/STM32/port/porttimer.c **** vMBPortTimersEnable(  )
  74:../FreeModbus/STM32/port/porttimer.c **** {
 138              		.loc 1 74 0
 139              		.cfi_startproc
 140              		@ args = 0, pretend = 0, frame = 0
 141              		@ frame_needed = 1, uses_anonymous_args = 0
 142 0000 80B5     		push	{r7, lr}
 143              	.LCFI3:
 144              		.cfi_def_cfa_offset 8
 145              		.cfi_offset 7, -8
 146              		.cfi_offset 14, -4
 147 0002 00AF     		add	r7, sp, #0
 148              	.LCFI4:
 149              		.cfi_def_cfa_register 7
  75:../FreeModbus/STM32/port/porttimer.c ****     /* Enable the timer with the timeout passed to xMBPortTimersInit( ) */
  76:../FreeModbus/STM32/port/porttimer.c **** 	TIM_ClearITPendingBit(TIM7, TIM_IT_Update);
 150              		.loc 1 76 0
 151 0004 4FF4A050 		mov	r0, #5120
 152 0008 C4F20000 		movt	r0, 16384
 153 000c 4FF00101 		mov	r1, #1
 154 0010 FFF7FEFF 		bl	TIM_ClearITPendingBit
  77:../FreeModbus/STM32/port/porttimer.c **** 	TIM_ITConfig(TIM7, TIM_IT_Update, ENABLE);
 155              		.loc 1 77 0
 156 0014 4FF4A050 		mov	r0, #5120
 157 0018 C4F20000 		movt	r0, 16384
 158 001c 4FF00101 		mov	r1, #1
 159 0020 4FF00102 		mov	r2, #1
 160 0024 FFF7FEFF 		bl	TIM_ITConfig
  78:../FreeModbus/STM32/port/porttimer.c **** 	TIM_SetCounter(TIM7,0x0000);
 161              		.loc 1 78 0
 162 0028 4FF4A050 		mov	r0, #5120
 163 002c C4F20000 		movt	r0, 16384
 164 0030 4FF00001 		mov	r1, #0
 165 0034 FFF7FEFF 		bl	TIM_SetCounter
  79:../FreeModbus/STM32/port/porttimer.c **** 	TIM_Cmd(TIM7, ENABLE);
 166              		.loc 1 79 0
 167 0038 4FF4A050 		mov	r0, #5120
 168 003c C4F20000 		movt	r0, 16384
 169 0040 4FF00101 		mov	r1, #1
 170 0044 FFF7FEFF 		bl	TIM_Cmd
  80:../FreeModbus/STM32/port/porttimer.c **** }
 171              		.loc 1 80 0
 172 0048 80BD     		pop	{r7, pc}
 173              		.cfi_endproc
 174              	.LFE30:
 176 004a 00BF     		.section	.text.vMBPortTimersDisable,"ax",%progbits
 177              		.align	2
 178              		.global	vMBPortTimersDisable
 179              		.thumb
 180              		.thumb_func
 182              	vMBPortTimersDisable:
 183              	.LFB31:
  81:../FreeModbus/STM32/port/porttimer.c **** 
  82:../FreeModbus/STM32/port/porttimer.c **** inline void
  83:../FreeModbus/STM32/port/porttimer.c **** vMBPortTimersDisable(  )
  84:../FreeModbus/STM32/port/porttimer.c **** {
 184              		.loc 1 84 0
 185              		.cfi_startproc
 186              		@ args = 0, pretend = 0, frame = 0
 187              		@ frame_needed = 1, uses_anonymous_args = 0
 188 0000 80B5     		push	{r7, lr}
 189              	.LCFI5:
 190              		.cfi_def_cfa_offset 8
 191              		.cfi_offset 7, -8
 192              		.cfi_offset 14, -4
 193 0002 00AF     		add	r7, sp, #0
 194              	.LCFI6:
 195              		.cfi_def_cfa_register 7
  85:../FreeModbus/STM32/port/porttimer.c ****     /* Disable any pending timers. */
  86:../FreeModbus/STM32/port/porttimer.c **** 	TIM_Cmd(TIM7, DISABLE);
 196              		.loc 1 86 0
 197 0004 4FF4A050 		mov	r0, #5120
 198 0008 C4F20000 		movt	r0, 16384
 199 000c 4FF00001 		mov	r1, #0
 200 0010 FFF7FEFF 		bl	TIM_Cmd
  87:../FreeModbus/STM32/port/porttimer.c **** 	TIM_SetCounter(TIM7,0x0000);
 201              		.loc 1 87 0
 202 0014 4FF4A050 		mov	r0, #5120
 203 0018 C4F20000 		movt	r0, 16384
 204 001c 4FF00001 		mov	r1, #0
 205 0020 FFF7FEFF 		bl	TIM_SetCounter
  88:../FreeModbus/STM32/port/porttimer.c **** 	TIM_ITConfig(TIM7, TIM_IT_Update, DISABLE);
 206              		.loc 1 88 0
 207 0024 4FF4A050 		mov	r0, #5120
 208 0028 C4F20000 		movt	r0, 16384
 209 002c 4FF00101 		mov	r1, #1
 210 0030 4FF00002 		mov	r2, #0
 211 0034 FFF7FEFF 		bl	TIM_ITConfig
  89:../FreeModbus/STM32/port/porttimer.c **** 	TIM_ClearITPendingBit(TIM7, TIM_IT_Update);
 212              		.loc 1 89 0
 213 0038 4FF4A050 		mov	r0, #5120
 214 003c C4F20000 		movt	r0, 16384
 215 0040 4FF00101 		mov	r1, #1
 216 0044 FFF7FEFF 		bl	TIM_ClearITPendingBit
  90:../FreeModbus/STM32/port/porttimer.c **** }
 217              		.loc 1 90 0
 218 0048 80BD     		pop	{r7, pc}
 219              		.cfi_endproc
 220              	.LFE31:
 222 004a 00BF     		.section	.text.prvvTIMERExpiredISR,"ax",%progbits
 223              		.align	2
 224              		.thumb
 225              		.thumb_func
 227              	prvvTIMERExpiredISR:
 228              	.LFB32:
  91:../FreeModbus/STM32/port/porttimer.c **** 
  92:../FreeModbus/STM32/port/porttimer.c **** /* Create an ISR which is called whenever the timer has expired. This function
  93:../FreeModbus/STM32/port/porttimer.c ****  * must then call pxMBPortCBTimerExpired( ) to notify the protocol stack that
  94:../FreeModbus/STM32/port/porttimer.c ****  * the timer has expired.
  95:../FreeModbus/STM32/port/porttimer.c ****  */
  96:../FreeModbus/STM32/port/porttimer.c **** static void prvvTIMERExpiredISR( void )
  97:../FreeModbus/STM32/port/porttimer.c **** {
 229              		.loc 1 97 0
 230              		.cfi_startproc
 231              		@ args = 0, pretend = 0, frame = 0
 232              		@ frame_needed = 1, uses_anonymous_args = 0
 233 0000 80B5     		push	{r7, lr}
 234              	.LCFI7:
 235              		.cfi_def_cfa_offset 8
 236              		.cfi_offset 7, -8
 237              		.cfi_offset 14, -4
 238 0002 00AF     		add	r7, sp, #0
 239              	.LCFI8:
 240              		.cfi_def_cfa_register 7
  98:../FreeModbus/STM32/port/porttimer.c **** 	( void )pxMBPortCBTimerExpired(  );
 241              		.loc 1 98 0
 242 0004 40F20003 		movw	r3, #:lower16:pxMBPortCBTimerExpired
 243 0008 C0F20003 		movt	r3, #:upper16:pxMBPortCBTimerExpired
 244 000c 1B68     		ldr	r3, [r3, #0]
 245 000e 9847     		blx	r3
  99:../FreeModbus/STM32/port/porttimer.c **** }
 246              		.loc 1 99 0
 247 0010 80BD     		pop	{r7, pc}
 248              		.cfi_endproc
 249              	.LFE32:
 251 0012 00BF     		.section	.text.TIM7_IRQHandler,"ax",%progbits
 252              		.align	2
 253              		.global	TIM7_IRQHandler
 254              		.thumb
 255              		.thumb_func
 257              	TIM7_IRQHandler:
 258              	.LFB33:
 100:../FreeModbus/STM32/port/porttimer.c **** 
 101:../FreeModbus/STM32/port/porttimer.c **** void TIM7_IRQHandler()
 102:../FreeModbus/STM32/port/porttimer.c **** {
 259              		.loc 1 102 0
 260              		.cfi_startproc
 261              		@ args = 0, pretend = 0, frame = 0
 262              		@ frame_needed = 1, uses_anonymous_args = 0
 263 0000 80B5     		push	{r7, lr}
 264              	.LCFI9:
 265              		.cfi_def_cfa_offset 8
 266              		.cfi_offset 7, -8
 267              		.cfi_offset 14, -4
 268 0002 00AF     		add	r7, sp, #0
 269              	.LCFI10:
 270              		.cfi_def_cfa_register 7
 103:../FreeModbus/STM32/port/porttimer.c **** 	TIM_ClearITPendingBit(TIM7, TIM_IT_Update);
 271              		.loc 1 103 0
 272 0004 4FF4A050 		mov	r0, #5120
 273 0008 C4F20000 		movt	r0, 16384
 274 000c 4FF00101 		mov	r1, #1
 275 0010 FFF7FEFF 		bl	TIM_ClearITPendingBit
 104:../FreeModbus/STM32/port/porttimer.c **** 	( void )pxMBPortCBTimerExpired(  );
 276              		.loc 1 104 0
 277 0014 40F20003 		movw	r3, #:lower16:pxMBPortCBTimerExpired
 278 0018 C0F20003 		movt	r3, #:upper16:pxMBPortCBTimerExpired
 279 001c 1B68     		ldr	r3, [r3, #0]
 280 001e 9847     		blx	r3
 105:../FreeModbus/STM32/port/porttimer.c **** }
 281              		.loc 1 105 0
 282 0020 80BD     		pop	{r7, pc}
 283              		.cfi_endproc
 284              	.LFE33:
 286 0022 00BF     		.text
 287              	.Letext0:
 288              		.file 2 "/home/frolls/ARM/gcc-arm-none-eabi-4_7-2012q4/bin/../lib/gcc/arm-none-eabi/4.7.3/../../..
 289              		.file 3 "/home/frolls/git/STM32_FreeRTOS_freeModBus/stm32vld_template/CMSIS/stm32f10x.h"
 290              		.file 4 "/home/frolls/git/STM32_FreeRTOS_freeModBus/stm32vld_template/StdPeripheralDriver/inc/stm3
 291              		.file 5 "/home/frolls/git/STM32_FreeRTOS_freeModBus/stm32vld_template/StdPeripheralDriver/inc/misc
 292              		.file 6 "../FreeModbus/STM32/port/port.h"
 293              		.file 7 "/home/frolls/git/STM32_FreeRTOS_freeModBus/stm32vld_template/CMSIS/core_cm3.h"
 294              		.file 8 "/home/frolls/git/STM32_FreeRTOS_freeModBus/stm32vld_template/CMSIS/system_stm32f10x.h"
 295              		.file 9 "/home/frolls/git/STM32_FreeRTOS_freeModBus/stm32vld_template/FreeModbus/modbus/include/mb