   1              		.syntax unified
   2              		.cpu cortex-m3
   3              		.fpu softvfp
   4              		.eabi_attribute 20, 1
   5              		.eabi_attribute 21, 1
   6              		.eabi_attribute 23, 3
   7              		.eabi_attribute 24, 1
   8              		.eabi_attribute 25, 1
   9              		.eabi_attribute 26, 1
  10              		.eabi_attribute 30, 6
  11              		.eabi_attribute 34, 1
  12              		.eabi_attribute 18, 4
  13              		.thumb
  14              		.file	"heap_1.c"
  15              		.text
  16              	.Ltext0:
  17              		.cfi_sections	.debug_frame
  18              		.section	.bss.ucHeap,"aw",%nobits
  19              		.align	2
  22              	ucHeap:
  23 0000 00000000 		.space	7168
  23      00000000 
  23      00000000 
  23      00000000 
  23      00000000 
  24              		.section	.bss.xNextFreeByte,"aw",%nobits
  25              		.align	2
  28              	xNextFreeByte:
  29 0000 00000000 		.space	4
  30              		.section	.text.pvPortMalloc,"ax",%progbits
  31              		.align	2
  32              		.global	pvPortMalloc
  33              		.thumb
  34              		.thumb_func
  36              	pvPortMalloc:
  37              	.LFB0:
  38              		.file 1 "../FreeRTOS/Sources/heap_1.c"
   1:../FreeRTOS/Sources/heap_1.c **** /*
   2:../FreeRTOS/Sources/heap_1.c ****     FreeRTOS V7.4.0 - Copyright (C) 2013 Real Time Engineers Ltd.
   3:../FreeRTOS/Sources/heap_1.c **** 
   4:../FreeRTOS/Sources/heap_1.c ****     FEATURES AND PORTS ARE ADDED TO FREERTOS ALL THE TIME.  PLEASE VISIT
   5:../FreeRTOS/Sources/heap_1.c ****     http://www.FreeRTOS.org TO ENSURE YOU ARE USING THE LATEST VERSION.
   6:../FreeRTOS/Sources/heap_1.c **** 
   7:../FreeRTOS/Sources/heap_1.c ****     ***************************************************************************
   8:../FreeRTOS/Sources/heap_1.c ****      *                                                                       *
   9:../FreeRTOS/Sources/heap_1.c ****      *    FreeRTOS tutorial books are available in pdf and paperback.        *
  10:../FreeRTOS/Sources/heap_1.c ****      *    Complete, revised, and edited pdf reference manuals are also       *
  11:../FreeRTOS/Sources/heap_1.c ****      *    available.                                                         *
  12:../FreeRTOS/Sources/heap_1.c ****      *                                                                       *
  13:../FreeRTOS/Sources/heap_1.c ****      *    Purchasing FreeRTOS documentation will not only help you, by       *
  14:../FreeRTOS/Sources/heap_1.c ****      *    ensuring you get running as quickly as possible and with an        *
  15:../FreeRTOS/Sources/heap_1.c ****      *    in-depth knowledge of how to use FreeRTOS, it will also help       *
  16:../FreeRTOS/Sources/heap_1.c ****      *    the FreeRTOS project to continue with its mission of providing     *
  17:../FreeRTOS/Sources/heap_1.c ****      *    professional grade, cross platform, de facto standard solutions    *
  18:../FreeRTOS/Sources/heap_1.c ****      *    for microcontrollers - completely free of charge!                  *
  19:../FreeRTOS/Sources/heap_1.c ****      *                                                                       *
  20:../FreeRTOS/Sources/heap_1.c ****      *    >>> See http://www.FreeRTOS.org/Documentation for details. <<<     *
  21:../FreeRTOS/Sources/heap_1.c ****      *                                                                       *
  22:../FreeRTOS/Sources/heap_1.c ****      *    Thank you for using FreeRTOS, and thank you for your support!      *
  23:../FreeRTOS/Sources/heap_1.c ****      *                                                                       *
  24:../FreeRTOS/Sources/heap_1.c ****     ***************************************************************************
  25:../FreeRTOS/Sources/heap_1.c **** 
  26:../FreeRTOS/Sources/heap_1.c **** 
  27:../FreeRTOS/Sources/heap_1.c ****     This file is part of the FreeRTOS distribution.
  28:../FreeRTOS/Sources/heap_1.c **** 
  29:../FreeRTOS/Sources/heap_1.c ****     FreeRTOS is free software; you can redistribute it and/or modify it under
  30:../FreeRTOS/Sources/heap_1.c ****     the terms of the GNU General Public License (version 2) as published by the
  31:../FreeRTOS/Sources/heap_1.c ****     Free Software Foundation AND MODIFIED BY the FreeRTOS exception.
  32:../FreeRTOS/Sources/heap_1.c **** 
  33:../FreeRTOS/Sources/heap_1.c ****     >>>>>>NOTE<<<<<< The modification to the GPL is included to allow you to
  34:../FreeRTOS/Sources/heap_1.c ****     distribute a combined work that includes FreeRTOS without being obliged to
  35:../FreeRTOS/Sources/heap_1.c ****     provide the source code for proprietary components outside of the FreeRTOS
  36:../FreeRTOS/Sources/heap_1.c ****     kernel.
  37:../FreeRTOS/Sources/heap_1.c **** 
  38:../FreeRTOS/Sources/heap_1.c ****     FreeRTOS is distributed in the hope that it will be useful, but WITHOUT ANY
  39:../FreeRTOS/Sources/heap_1.c ****     WARRANTY; without even the implied warranty of MERCHANTABILITY or FITNESS
  40:../FreeRTOS/Sources/heap_1.c ****     FOR A PARTICULAR PURPOSE.  See the GNU General Public License for more
  41:../FreeRTOS/Sources/heap_1.c ****     details. You should have received a copy of the GNU General Public License
  42:../FreeRTOS/Sources/heap_1.c ****     and the FreeRTOS license exception along with FreeRTOS; if not itcan be
  43:../FreeRTOS/Sources/heap_1.c ****     viewed here: http://www.freertos.org/a00114.html and also obtained by
  44:../FreeRTOS/Sources/heap_1.c ****     writing to Real Time Engineers Ltd., contact details for whom are available
  45:../FreeRTOS/Sources/heap_1.c ****     on the FreeRTOS WEB site.
  46:../FreeRTOS/Sources/heap_1.c **** 
  47:../FreeRTOS/Sources/heap_1.c ****     1 tab == 4 spaces!
  48:../FreeRTOS/Sources/heap_1.c **** 
  49:../FreeRTOS/Sources/heap_1.c ****     ***************************************************************************
  50:../FreeRTOS/Sources/heap_1.c ****      *                                                                       *
  51:../FreeRTOS/Sources/heap_1.c ****      *    Having a problem?  Start by reading the FAQ "My application does   *
  52:../FreeRTOS/Sources/heap_1.c ****      *    not run, what could be wrong?"                                     *
  53:../FreeRTOS/Sources/heap_1.c ****      *                                                                       *
  54:../FreeRTOS/Sources/heap_1.c ****      *    http://www.FreeRTOS.org/FAQHelp.html                               *
  55:../FreeRTOS/Sources/heap_1.c ****      *                                                                       *
  56:../FreeRTOS/Sources/heap_1.c ****     ***************************************************************************
  57:../FreeRTOS/Sources/heap_1.c **** 
  58:../FreeRTOS/Sources/heap_1.c **** 
  59:../FreeRTOS/Sources/heap_1.c ****     http://www.FreeRTOS.org - Documentation, books, training, latest versions, 
  60:../FreeRTOS/Sources/heap_1.c ****     license and Real Time Engineers Ltd. contact details.
  61:../FreeRTOS/Sources/heap_1.c **** 
  62:../FreeRTOS/Sources/heap_1.c ****     http://www.FreeRTOS.org/plus - A selection of FreeRTOS ecosystem products,
  63:../FreeRTOS/Sources/heap_1.c ****     including FreeRTOS+Trace - an indispensable productivity tool, and our new
  64:../FreeRTOS/Sources/heap_1.c ****     fully thread aware and reentrant UDP/IP stack.
  65:../FreeRTOS/Sources/heap_1.c **** 
  66:../FreeRTOS/Sources/heap_1.c ****     http://www.OpenRTOS.com - Real Time Engineers ltd license FreeRTOS to High 
  67:../FreeRTOS/Sources/heap_1.c ****     Integrity Systems, who sell the code with commercial support, 
  68:../FreeRTOS/Sources/heap_1.c ****     indemnification and middleware, under the OpenRTOS brand.
  69:../FreeRTOS/Sources/heap_1.c ****     
  70:../FreeRTOS/Sources/heap_1.c ****     http://www.SafeRTOS.com - High Integrity Systems also provide a safety 
  71:../FreeRTOS/Sources/heap_1.c ****     engineered and independently SIL3 certified version for use in safety and 
  72:../FreeRTOS/Sources/heap_1.c ****     mission critical applications that require provable dependability.
  73:../FreeRTOS/Sources/heap_1.c **** */
  74:../FreeRTOS/Sources/heap_1.c **** 
  75:../FreeRTOS/Sources/heap_1.c **** 
  76:../FreeRTOS/Sources/heap_1.c **** /*
  77:../FreeRTOS/Sources/heap_1.c ****  * The simplest possible implementation of pvPortMalloc().  Note that this
  78:../FreeRTOS/Sources/heap_1.c ****  * implementation does NOT allow allocated memory to be freed again.
  79:../FreeRTOS/Sources/heap_1.c ****  *
  80:../FreeRTOS/Sources/heap_1.c ****  * See heap_2.c, heap_3.c and heap_4.c for alternative implementations, and the
  81:../FreeRTOS/Sources/heap_1.c ****  * memory management pages of http://www.FreeRTOS.org for more information.
  82:../FreeRTOS/Sources/heap_1.c ****  */
  83:../FreeRTOS/Sources/heap_1.c **** #include <stdlib.h>
  84:../FreeRTOS/Sources/heap_1.c **** 
  85:../FreeRTOS/Sources/heap_1.c **** /* Defining MPU_WRAPPERS_INCLUDED_FROM_API_FILE prevents task.h from redefining
  86:../FreeRTOS/Sources/heap_1.c **** all the API functions to use the MPU wrappers.  That should only be done when
  87:../FreeRTOS/Sources/heap_1.c **** task.h is included from an application file. */
  88:../FreeRTOS/Sources/heap_1.c **** #define MPU_WRAPPERS_INCLUDED_FROM_API_FILE
  89:../FreeRTOS/Sources/heap_1.c **** 
  90:../FreeRTOS/Sources/heap_1.c **** #include "FreeRTOS.h"
  91:../FreeRTOS/Sources/heap_1.c **** #include "task.h"
  92:../FreeRTOS/Sources/heap_1.c **** 
  93:../FreeRTOS/Sources/heap_1.c **** #undef MPU_WRAPPERS_INCLUDED_FROM_API_FILE
  94:../FreeRTOS/Sources/heap_1.c **** 
  95:../FreeRTOS/Sources/heap_1.c **** /* A few bytes might be lost to byte aligning the heap start address. */
  96:../FreeRTOS/Sources/heap_1.c **** #define configADJUSTED_HEAP_SIZE	( configTOTAL_HEAP_SIZE - portBYTE_ALIGNMENT )
  97:../FreeRTOS/Sources/heap_1.c **** 
  98:../FreeRTOS/Sources/heap_1.c **** /* Allocate the memory for the heap. */
  99:../FreeRTOS/Sources/heap_1.c **** static unsigned char ucHeap[ configTOTAL_HEAP_SIZE ];
 100:../FreeRTOS/Sources/heap_1.c **** static size_t xNextFreeByte = ( size_t ) 0;
 101:../FreeRTOS/Sources/heap_1.c **** 
 102:../FreeRTOS/Sources/heap_1.c **** /*-----------------------------------------------------------*/
 103:../FreeRTOS/Sources/heap_1.c **** 
 104:../FreeRTOS/Sources/heap_1.c **** void *pvPortMalloc( size_t xWantedSize )
 105:../FreeRTOS/Sources/heap_1.c **** {
  39              		.loc 1 105 0
  40              		.cfi_startproc
  41              		@ args = 0, pretend = 0, frame = 16
  42              		@ frame_needed = 1, uses_anonymous_args = 0
  43 0000 80B5     		push	{r7, lr}
  44              	.LCFI0:
  45              		.cfi_def_cfa_offset 8
  46              		.cfi_offset 7, -8
  47              		.cfi_offset 14, -4
  48 0002 84B0     		sub	sp, sp, #16
  49              	.LCFI1:
  50              		.cfi_def_cfa_offset 24
  51 0004 00AF     		add	r7, sp, #0
  52              	.LCFI2:
  53              		.cfi_def_cfa_register 7
  54 0006 7860     		str	r0, [r7, #4]
 106:../FreeRTOS/Sources/heap_1.c **** void *pvReturn = NULL;
  55              		.loc 1 106 0
  56 0008 4FF00003 		mov	r3, #0
  57 000c FB60     		str	r3, [r7, #12]
 107:../FreeRTOS/Sources/heap_1.c **** static unsigned char *pucAlignedHeap = NULL;
 108:../FreeRTOS/Sources/heap_1.c **** 
 109:../FreeRTOS/Sources/heap_1.c **** 	/* Ensure that blocks are always aligned to the required number of bytes. */
 110:../FreeRTOS/Sources/heap_1.c **** 	#if portBYTE_ALIGNMENT != 1
 111:../FreeRTOS/Sources/heap_1.c **** 		if( xWantedSize & portBYTE_ALIGNMENT_MASK )
  58              		.loc 1 111 0
  59 000e 7B68     		ldr	r3, [r7, #4]
  60 0010 03F00703 		and	r3, r3, #7
  61 0014 002B     		cmp	r3, #0
  62 0016 05D0     		beq	.L2
 112:../FreeRTOS/Sources/heap_1.c **** 		{
 113:../FreeRTOS/Sources/heap_1.c **** 			/* Byte alignment required. */
 114:../FreeRTOS/Sources/heap_1.c **** 			xWantedSize += ( portBYTE_ALIGNMENT - ( xWantedSize & portBYTE_ALIGNMENT_MASK ) );
  63              		.loc 1 114 0
  64 0018 7B68     		ldr	r3, [r7, #4]
  65 001a 23F00703 		bic	r3, r3, #7
  66 001e 03F10803 		add	r3, r3, #8
  67 0022 7B60     		str	r3, [r7, #4]
  68              	.L2:
 115:../FreeRTOS/Sources/heap_1.c **** 		}
 116:../FreeRTOS/Sources/heap_1.c **** 	#endif
 117:../FreeRTOS/Sources/heap_1.c **** 
 118:../FreeRTOS/Sources/heap_1.c **** 	vTaskSuspendAll();
  69              		.loc 1 118 0
  70 0024 FFF7FEFF 		bl	vTaskSuspendAll
 119:../FreeRTOS/Sources/heap_1.c **** 	{
 120:../FreeRTOS/Sources/heap_1.c **** 		if( pucAlignedHeap == NULL )
  71              		.loc 1 120 0
  72 0028 40F20003 		movw	r3, #:lower16:pucAlignedHeap.4824
  73 002c C0F20003 		movt	r3, #:upper16:pucAlignedHeap.4824
  74 0030 1B68     		ldr	r3, [r3, #0]
  75 0032 002B     		cmp	r3, #0
  76 0034 08D1     		bne	.L3
 121:../FreeRTOS/Sources/heap_1.c **** 		{
 122:../FreeRTOS/Sources/heap_1.c **** 			/* Ensure the heap starts on a correctly aligned boundary. */
 123:../FreeRTOS/Sources/heap_1.c **** 			pucAlignedHeap = ( unsigned char * ) ( ( ( portPOINTER_SIZE_TYPE ) &ucHeap[ portBYTE_ALIGNMENT ]
  77              		.loc 1 123 0
  78 0036 234B     		ldr	r3, .L7
  79 0038 23F00703 		bic	r3, r3, #7
  80 003c 1A46     		mov	r2, r3
  81 003e 40F20003 		movw	r3, #:lower16:pucAlignedHeap.4824
  82 0042 C0F20003 		movt	r3, #:upper16:pucAlignedHeap.4824
  83 0046 1A60     		str	r2, [r3, #0]
  84              	.L3:
 124:../FreeRTOS/Sources/heap_1.c **** 		}
 125:../FreeRTOS/Sources/heap_1.c **** 
 126:../FreeRTOS/Sources/heap_1.c **** 		/* Check there is enough room left for the allocation. */
 127:../FreeRTOS/Sources/heap_1.c **** 		if( ( ( xNextFreeByte + xWantedSize ) < configADJUSTED_HEAP_SIZE ) &&
  85              		.loc 1 127 0
  86 0048 40F20003 		movw	r3, #:lower16:xNextFreeByte
  87 004c C0F20003 		movt	r3, #:upper16:xNextFreeByte
  88 0050 1A68     		ldr	r2, [r3, #0]
  89 0052 7B68     		ldr	r3, [r7, #4]
  90 0054 D218     		adds	r2, r2, r3
  91 0056 41F6F733 		movw	r3, #7159
  92 005a 9A42     		cmp	r2, r3
  93 005c 25D8     		bhi	.L4
 128:../FreeRTOS/Sources/heap_1.c **** 			( ( xNextFreeByte + xWantedSize ) > xNextFreeByte )	)/* Check for overflow. */
  94              		.loc 1 128 0 discriminator 1
  95 005e 40F20003 		movw	r3, #:lower16:xNextFreeByte
  96 0062 C0F20003 		movt	r3, #:upper16:xNextFreeByte
  97 0066 1A68     		ldr	r2, [r3, #0]
  98 0068 7B68     		ldr	r3, [r7, #4]
  99 006a D218     		adds	r2, r2, r3
 100 006c 40F20003 		movw	r3, #:lower16:xNextFreeByte
 101 0070 C0F20003 		movt	r3, #:upper16:xNextFreeByte
 102 0074 1B68     		ldr	r3, [r3, #0]
 127:../FreeRTOS/Sources/heap_1.c **** 		if( ( ( xNextFreeByte + xWantedSize ) < configADJUSTED_HEAP_SIZE ) &&
 103              		.loc 1 127 0 discriminator 1
 104 0076 9A42     		cmp	r2, r3
 105 0078 17D9     		bls	.L4
 129:../FreeRTOS/Sources/heap_1.c **** 		{
 130:../FreeRTOS/Sources/heap_1.c **** 			/* Return the next free byte then increment the index past this
 131:../FreeRTOS/Sources/heap_1.c **** 			block. */
 132:../FreeRTOS/Sources/heap_1.c **** 			pvReturn = pucAlignedHeap + xNextFreeByte;
 106              		.loc 1 132 0
 107 007a 40F20003 		movw	r3, #:lower16:pucAlignedHeap.4824
 108 007e C0F20003 		movt	r3, #:upper16:pucAlignedHeap.4824
 109 0082 1A68     		ldr	r2, [r3, #0]
 110 0084 40F20003 		movw	r3, #:lower16:xNextFreeByte
 111 0088 C0F20003 		movt	r3, #:upper16:xNextFreeByte
 112 008c 1B68     		ldr	r3, [r3, #0]
 113 008e D318     		adds	r3, r2, r3
 114 0090 FB60     		str	r3, [r7, #12]
 133:../FreeRTOS/Sources/heap_1.c **** 			xNextFreeByte += xWantedSize;
 115              		.loc 1 133 0
 116 0092 40F20003 		movw	r3, #:lower16:xNextFreeByte
 117 0096 C0F20003 		movt	r3, #:upper16:xNextFreeByte
 118 009a 1A68     		ldr	r2, [r3, #0]
 119 009c 7B68     		ldr	r3, [r7, #4]
 120 009e D218     		adds	r2, r2, r3
 121 00a0 40F20003 		movw	r3, #:lower16:xNextFreeByte
 122 00a4 C0F20003 		movt	r3, #:upper16:xNextFreeByte
 123 00a8 1A60     		str	r2, [r3, #0]
 124              	.L4:
 134:../FreeRTOS/Sources/heap_1.c **** 		}
 135:../FreeRTOS/Sources/heap_1.c **** 	}
 136:../FreeRTOS/Sources/heap_1.c **** 	xTaskResumeAll();
 125              		.loc 1 136 0
 126 00aa FFF7FEFF 		bl	xTaskResumeAll
 137:../FreeRTOS/Sources/heap_1.c **** 
 138:../FreeRTOS/Sources/heap_1.c **** 	#if( configUSE_MALLOC_FAILED_HOOK == 1 )
 139:../FreeRTOS/Sources/heap_1.c **** 	{
 140:../FreeRTOS/Sources/heap_1.c **** 		if( pvReturn == NULL )
 127              		.loc 1 140 0
 128 00ae FB68     		ldr	r3, [r7, #12]
 129 00b0 002B     		cmp	r3, #0
 130 00b2 01D1     		bne	.L5
 131              	.LBB2:
 141:../FreeRTOS/Sources/heap_1.c **** 		{
 142:../FreeRTOS/Sources/heap_1.c **** 			extern void vApplicationMallocFailedHook( void );
 143:../FreeRTOS/Sources/heap_1.c **** 			vApplicationMallocFailedHook();
 132              		.loc 1 143 0
 133 00b4 FFF7FEFF 		bl	vApplicationMallocFailedHook
 134              	.L5:
 135              	.LBE2:
 144:../FreeRTOS/Sources/heap_1.c **** 		}
 145:../FreeRTOS/Sources/heap_1.c **** 	}
 146:../FreeRTOS/Sources/heap_1.c **** 	#endif
 147:../FreeRTOS/Sources/heap_1.c **** 
 148:../FreeRTOS/Sources/heap_1.c **** 	return pvReturn;
 136              		.loc 1 148 0
 137 00b8 FB68     		ldr	r3, [r7, #12]
 149:../FreeRTOS/Sources/heap_1.c **** }
 138              		.loc 1 149 0
 139 00ba 1846     		mov	r0, r3
 140 00bc 07F11007 		add	r7, r7, #16
 141 00c0 BD46     		mov	sp, r7
 142 00c2 80BD     		pop	{r7, pc}
 143              	.L8:
 144              		.align	2
 145              	.L7:
 146 00c4 08000000 		.word	ucHeap+8
 147              		.cfi_endproc
 148              	.LFE0:
 150              		.section	.text.vPortFree,"ax",%progbits
 151              		.align	2
 152              		.global	vPortFree
 153              		.thumb
 154              		.thumb_func
 156              	vPortFree:
 157              	.LFB1:
 150:../FreeRTOS/Sources/heap_1.c **** /*-----------------------------------------------------------*/
 151:../FreeRTOS/Sources/heap_1.c **** 
 152:../FreeRTOS/Sources/heap_1.c **** void vPortFree( void *pv )
 153:../FreeRTOS/Sources/heap_1.c **** {
 158              		.loc 1 153 0
 159              		.cfi_startproc
 160              		@ args = 0, pretend = 0, frame = 8
 161              		@ frame_needed = 1, uses_anonymous_args = 0
 162 0000 80B5     		push	{r7, lr}
 163              	.LCFI3:
 164              		.cfi_def_cfa_offset 8
 165              		.cfi_offset 7, -8
 166              		.cfi_offset 14, -4
 167 0002 82B0     		sub	sp, sp, #8
 168              	.LCFI4:
 169              		.cfi_def_cfa_offset 16
 170 0004 00AF     		add	r7, sp, #0
 171              	.LCFI5:
 172              		.cfi_def_cfa_register 7
 173 0006 7860     		str	r0, [r7, #4]
 154:../FreeRTOS/Sources/heap_1.c **** 	/* Memory cannot be freed using this scheme.  See heap_2.c, heap_3.c and
 155:../FreeRTOS/Sources/heap_1.c **** 	heap_4.c for alternative implementations, and the memory management pages of
 156:../FreeRTOS/Sources/heap_1.c **** 	http://www.FreeRTOS.org for more information. */
 157:../FreeRTOS/Sources/heap_1.c **** 	( void ) pv;
 158:../FreeRTOS/Sources/heap_1.c **** 
 159:../FreeRTOS/Sources/heap_1.c **** 	/* Force an assert as it is invalid to call this function. */
 160:../FreeRTOS/Sources/heap_1.c **** 	configASSERT( pv == NULL );
 174              		.loc 1 160 0
 175 0008 7B68     		ldr	r3, [r7, #4]
 176 000a 002B     		cmp	r3, #0
 177 000c 02D0     		beq	.L9
 178              		.loc 1 160 0 is_stmt 0 discriminator 1
 179 000e FFF7FEFF 		bl	ulPortSetInterruptMask
 180              	.L11:
 181              		.loc 1 160 0 discriminator 2
 182 0012 FEE7     		b	.L11
 183              	.L9:
 161:../FreeRTOS/Sources/heap_1.c **** }
 184              		.loc 1 161 0 is_stmt 1
 185 0014 07F10807 		add	r7, r7, #8
 186 0018 BD46     		mov	sp, r7
 187 001a 80BD     		pop	{r7, pc}
 188              		.cfi_endproc
 189              	.LFE1:
 191              		.section	.text.vPortInitialiseBlocks,"ax",%progbits
 192              		.align	2
 193              		.global	vPortInitialiseBlocks
 194              		.thumb
 195              		.thumb_func
 197              	vPortInitialiseBlocks:
 198              	.LFB2:
 162:../FreeRTOS/Sources/heap_1.c **** /*-----------------------------------------------------------*/
 163:../FreeRTOS/Sources/heap_1.c **** 
 164:../FreeRTOS/Sources/heap_1.c **** void vPortInitialiseBlocks( void )
 165:../FreeRTOS/Sources/heap_1.c **** {
 199              		.loc 1 165 0
 200              		.cfi_startproc
 201              		@ args = 0, pretend = 0, frame = 0
 202              		@ frame_needed = 1, uses_anonymous_args = 0
 203              		@ link register save eliminated.
 204 0000 80B4     		push	{r7}
 205              	.LCFI6:
 206              		.cfi_def_cfa_offset 4
 207              		.cfi_offset 7, -4
 208 0002 00AF     		add	r7, sp, #0
 209              	.LCFI7:
 210              		.cfi_def_cfa_register 7
 166:../FreeRTOS/Sources/heap_1.c **** 	/* Only required when static memory is not cleared. */
 167:../FreeRTOS/Sources/heap_1.c **** 	xNextFreeByte = ( size_t ) 0;
 211              		.loc 1 167 0
 212 0004 40F20003 		movw	r3, #:lower16:xNextFreeByte
 213 0008 C0F20003 		movt	r3, #:upper16:xNextFreeByte
 214 000c 4FF00002 		mov	r2, #0
 215 0010 1A60     		str	r2, [r3, #0]
 168:../FreeRTOS/Sources/heap_1.c **** }
 216              		.loc 1 168 0
 217 0012 BD46     		mov	sp, r7
 218 0014 80BC     		pop	{r7}
 219 0016 7047     		bx	lr
 220              		.cfi_endproc
 221              	.LFE2:
 223              		.section	.text.xPortGetFreeHeapSize,"ax",%progbits
 224              		.align	2
 225              		.global	xPortGetFreeHeapSize
 226              		.thumb
 227              		.thumb_func
 229              	xPortGetFreeHeapSize:
 230              	.LFB3:
 169:../FreeRTOS/Sources/heap_1.c **** /*-----------------------------------------------------------*/
 170:../FreeRTOS/Sources/heap_1.c **** 
 171:../FreeRTOS/Sources/heap_1.c **** size_t xPortGetFreeHeapSize( void )
 172:../FreeRTOS/Sources/heap_1.c **** {
 231              		.loc 1 172 0
 232              		.cfi_startproc
 233              		@ args = 0, pretend = 0, frame = 0
 234              		@ frame_needed = 1, uses_anonymous_args = 0
 235              		@ link register save eliminated.
 236 0000 80B4     		push	{r7}
 237              	.LCFI8:
 238              		.cfi_def_cfa_offset 4
 239              		.cfi_offset 7, -4
 240 0002 00AF     		add	r7, sp, #0
 241              	.LCFI9:
 242              		.cfi_def_cfa_register 7
 173:../FreeRTOS/Sources/heap_1.c **** 	return ( configADJUSTED_HEAP_SIZE - xNextFreeByte );
 243              		.loc 1 173 0
 244 0004 40F20003 		movw	r3, #:lower16:xNextFreeByte
 245 0008 C0F20003 		movt	r3, #:upper16:xNextFreeByte
 246 000c 1B68     		ldr	r3, [r3, #0]
 247 000e C3F5DF53 		rsb	r3, r3, #7136
 248 0012 03F11803 		add	r3, r3, #24
 174:../FreeRTOS/Sources/heap_1.c **** }
 249              		.loc 1 174 0
 250 0016 1846     		mov	r0, r3
 251 0018 BD46     		mov	sp, r7
 252 001a 80BC     		pop	{r7}
 253 001c 7047     		bx	lr
 254              		.cfi_endproc
 255              	.LFE3:
 257 001e 00BF     		.section	.bss.pucAlignedHeap.4824,"aw",%nobits
 258              		.align	2
 261              	pucAlignedHeap.4824:
 262 0000 00000000 		.space	4
 263              		.text
 264              	.Letext0:
 265              		.file 2 "/home/frolls/ARM/gcc-arm-none-eabi-4_7-2012q4/bin/../lib/gcc/arm-none-eabi/4.7.3/include/