   1              		.syntax unified
   2              		.cpu cortex-m3
   3              		.fpu softvfp
   4              		.eabi_attribute 20, 1
   5              		.eabi_attribute 21, 1
   6              		.eabi_attribute 23, 3
   7              		.eabi_attribute 24, 1
   8              		.eabi_attribute 25, 1
   9              		.eabi_attribute 26, 1
  10              		.eabi_attribute 30, 6
  11              		.eabi_attribute 34, 1
  12              		.eabi_attribute 18, 4
  13              		.thumb
  14              		.file	"core_cm3.c"
  15              		.text
  16              	.Ltext0:
  17              		.cfi_sections	.debug_frame
  18              		.section	.text.__get_PSP,"ax",%progbits
  19              		.align	2
  20              		.global	__get_PSP
  21              		.thumb
  22              		.thumb_func
  24              	__get_PSP:
  25              	.LFB0:
  26              		.file 1 "../CMSIS/core_cm3.c"
   1:../CMSIS/core_cm3.c **** /**************************************************************************//**
   2:../CMSIS/core_cm3.c ****  * @file     core_cm3.c
   3:../CMSIS/core_cm3.c ****  * @brief    CMSIS Cortex-M3 Core Peripheral Access Layer Source File
   4:../CMSIS/core_cm3.c ****  * @version  V1.30
   5:../CMSIS/core_cm3.c ****  * @date     30. October 2009
   6:../CMSIS/core_cm3.c ****  *
   7:../CMSIS/core_cm3.c ****  * @note
   8:../CMSIS/core_cm3.c ****  * Copyright (C) 2009 ARM Limited. All rights reserved.
   9:../CMSIS/core_cm3.c ****  *
  10:../CMSIS/core_cm3.c ****  * @par
  11:../CMSIS/core_cm3.c ****  * ARM Limited (ARM) is supplying this software for use with Cortex-M 
  12:../CMSIS/core_cm3.c ****  * processor based microcontrollers.  This file can be freely distributed 
  13:../CMSIS/core_cm3.c ****  * within development tools that are supporting such ARM based processors. 
  14:../CMSIS/core_cm3.c ****  *
  15:../CMSIS/core_cm3.c ****  * @par
  16:../CMSIS/core_cm3.c ****  * THIS SOFTWARE IS PROVIDED "AS IS".  NO WARRANTIES, WHETHER EXPRESS, IMPLIED
  17:../CMSIS/core_cm3.c ****  * OR STATUTORY, INCLUDING, BUT NOT LIMITED TO, IMPLIED WARRANTIES OF
  18:../CMSIS/core_cm3.c ****  * MERCHANTABILITY AND FITNESS FOR A PARTICULAR PURPOSE APPLY TO THIS SOFTWARE.
  19:../CMSIS/core_cm3.c ****  * ARM SHALL NOT, IN ANY CIRCUMSTANCES, BE LIABLE FOR SPECIAL, INCIDENTAL, OR
  20:../CMSIS/core_cm3.c ****  * CONSEQUENTIAL DAMAGES, FOR ANY REASON WHATSOEVER.
  21:../CMSIS/core_cm3.c ****  *
  22:../CMSIS/core_cm3.c ****  ******************************************************************************/
  23:../CMSIS/core_cm3.c **** 
  24:../CMSIS/core_cm3.c **** #include <stdint.h>
  25:../CMSIS/core_cm3.c **** 
  26:../CMSIS/core_cm3.c **** /* define compiler specific symbols */
  27:../CMSIS/core_cm3.c **** #if defined ( __CC_ARM   )
  28:../CMSIS/core_cm3.c **** #define __ASM            __asm                                      /*!< asm keyword for ARM Compil
  29:../CMSIS/core_cm3.c **** #define __INLINE         __inline                                   /*!< inline keyword for ARM Com
  30:../CMSIS/core_cm3.c **** 
  31:../CMSIS/core_cm3.c **** #elif defined ( __ICCARM__ )
  32:../CMSIS/core_cm3.c **** #define __ASM           __asm                                       /*!< asm keyword for IAR Compil
  33:../CMSIS/core_cm3.c **** #define __INLINE        inline                                      /*!< inline keyword for IAR Com
  34:../CMSIS/core_cm3.c **** 
  35:../CMSIS/core_cm3.c **** #elif defined   (  __GNUC__  )
  36:../CMSIS/core_cm3.c **** #define __ASM            __asm                                      /*!< asm keyword for GNU Compil
  37:../CMSIS/core_cm3.c **** #define __INLINE         inline                                     /*!< inline keyword for GNU Com
  38:../CMSIS/core_cm3.c **** 
  39:../CMSIS/core_cm3.c **** #elif defined   (  __TASKING__  )
  40:../CMSIS/core_cm3.c **** #define __ASM            __asm                                      /*!< asm keyword for TASKING Co
  41:../CMSIS/core_cm3.c **** #define __INLINE         inline                                     /*!< inline keyword for TASKING
  42:../CMSIS/core_cm3.c **** 
  43:../CMSIS/core_cm3.c **** #endif
  44:../CMSIS/core_cm3.c **** 
  45:../CMSIS/core_cm3.c **** /* ###################  Compiler specific Intrinsics  ########################### */
  46:../CMSIS/core_cm3.c **** 
  47:../CMSIS/core_cm3.c **** #if defined ( __CC_ARM   ) /*------------------RealView Compiler -----------------*/
  48:../CMSIS/core_cm3.c **** /* ARM armcc specific functions */
  49:../CMSIS/core_cm3.c **** 
  50:../CMSIS/core_cm3.c **** /**
  51:../CMSIS/core_cm3.c ****  * @brief  Return the Process Stack Pointer
  52:../CMSIS/core_cm3.c ****  *
  53:../CMSIS/core_cm3.c ****  * @return ProcessStackPointer
  54:../CMSIS/core_cm3.c ****  *
  55:../CMSIS/core_cm3.c ****  * Return the actual process stack pointer
  56:../CMSIS/core_cm3.c ****  */
  57:../CMSIS/core_cm3.c **** __ASM uint32_t __get_PSP(void)
  58:../CMSIS/core_cm3.c **** {
  59:../CMSIS/core_cm3.c **** 	mrs r0, psp
  60:../CMSIS/core_cm3.c **** 	bx lr
  61:../CMSIS/core_cm3.c **** }
  62:../CMSIS/core_cm3.c **** 
  63:../CMSIS/core_cm3.c **** /**
  64:../CMSIS/core_cm3.c ****  * @brief  Set the Process Stack Pointer
  65:../CMSIS/core_cm3.c ****  *
  66:../CMSIS/core_cm3.c ****  * @param  topOfProcStack  Process Stack Pointer
  67:../CMSIS/core_cm3.c ****  *
  68:../CMSIS/core_cm3.c ****  * Assign the value ProcessStackPointer to the MSP 
  69:../CMSIS/core_cm3.c ****  * (process stack pointer) Cortex processor register
  70:../CMSIS/core_cm3.c ****  */
  71:../CMSIS/core_cm3.c **** __ASM void __set_PSP(uint32_t topOfProcStack)
  72:../CMSIS/core_cm3.c **** {
  73:../CMSIS/core_cm3.c **** 	msr psp, r0
  74:../CMSIS/core_cm3.c **** 	bx lr
  75:../CMSIS/core_cm3.c **** }
  76:../CMSIS/core_cm3.c **** 
  77:../CMSIS/core_cm3.c **** /**
  78:../CMSIS/core_cm3.c ****  * @brief  Return the Main Stack Pointer
  79:../CMSIS/core_cm3.c ****  *
  80:../CMSIS/core_cm3.c ****  * @return Main Stack Pointer
  81:../CMSIS/core_cm3.c ****  *
  82:../CMSIS/core_cm3.c ****  * Return the current value of the MSP (main stack pointer)
  83:../CMSIS/core_cm3.c ****  * Cortex processor register
  84:../CMSIS/core_cm3.c ****  */
  85:../CMSIS/core_cm3.c **** __ASM uint32_t __get_MSP(void)
  86:../CMSIS/core_cm3.c **** {
  87:../CMSIS/core_cm3.c **** 	mrs r0, msp
  88:../CMSIS/core_cm3.c **** 	bx lr
  89:../CMSIS/core_cm3.c **** }
  90:../CMSIS/core_cm3.c **** 
  91:../CMSIS/core_cm3.c **** /**
  92:../CMSIS/core_cm3.c ****  * @brief  Set the Main Stack Pointer
  93:../CMSIS/core_cm3.c ****  *
  94:../CMSIS/core_cm3.c ****  * @param  topOfMainStack  Main Stack Pointer
  95:../CMSIS/core_cm3.c ****  *
  96:../CMSIS/core_cm3.c ****  * Assign the value mainStackPointer to the MSP 
  97:../CMSIS/core_cm3.c ****  * (main stack pointer) Cortex processor register
  98:../CMSIS/core_cm3.c ****  */
  99:../CMSIS/core_cm3.c **** __ASM void __set_MSP(uint32_t mainStackPointer)
 100:../CMSIS/core_cm3.c **** {
 101:../CMSIS/core_cm3.c **** 	msr msp, r0
 102:../CMSIS/core_cm3.c **** 	bx lr
 103:../CMSIS/core_cm3.c **** }
 104:../CMSIS/core_cm3.c **** 
 105:../CMSIS/core_cm3.c **** /**
 106:../CMSIS/core_cm3.c ****  * @brief  Reverse byte order in unsigned short value
 107:../CMSIS/core_cm3.c ****  *
 108:../CMSIS/core_cm3.c ****  * @param   value  value to reverse
 109:../CMSIS/core_cm3.c ****  * @return         reversed value
 110:../CMSIS/core_cm3.c ****  *
 111:../CMSIS/core_cm3.c ****  * Reverse byte order in unsigned short value
 112:../CMSIS/core_cm3.c ****  */
 113:../CMSIS/core_cm3.c **** __ASM uint32_t __REV16(uint16_t value)
 114:../CMSIS/core_cm3.c **** {
 115:../CMSIS/core_cm3.c **** 	rev16 r0, r0
 116:../CMSIS/core_cm3.c **** 	bx lr
 117:../CMSIS/core_cm3.c **** }
 118:../CMSIS/core_cm3.c **** 
 119:../CMSIS/core_cm3.c **** /**
 120:../CMSIS/core_cm3.c ****  * @brief  Reverse byte order in signed short value with sign extension to integer
 121:../CMSIS/core_cm3.c ****  *
 122:../CMSIS/core_cm3.c ****  * @param   value  value to reverse
 123:../CMSIS/core_cm3.c ****  * @return         reversed value
 124:../CMSIS/core_cm3.c ****  *
 125:../CMSIS/core_cm3.c ****  * Reverse byte order in signed short value with sign extension to integer
 126:../CMSIS/core_cm3.c ****  */
 127:../CMSIS/core_cm3.c **** __ASM int32_t __REVSH(int16_t value)
 128:../CMSIS/core_cm3.c **** {
 129:../CMSIS/core_cm3.c **** 	revsh r0, r0
 130:../CMSIS/core_cm3.c **** 	bx lr
 131:../CMSIS/core_cm3.c **** }
 132:../CMSIS/core_cm3.c **** 
 133:../CMSIS/core_cm3.c **** #if (__ARMCC_VERSION < 400000)
 134:../CMSIS/core_cm3.c **** 
 135:../CMSIS/core_cm3.c **** /**
 136:../CMSIS/core_cm3.c ****  * @brief  Remove the exclusive lock created by ldrex
 137:../CMSIS/core_cm3.c ****  *
 138:../CMSIS/core_cm3.c ****  * Removes the exclusive lock which is created by ldrex.
 139:../CMSIS/core_cm3.c ****  */
 140:../CMSIS/core_cm3.c **** __ASM void __CLREX(void)
 141:../CMSIS/core_cm3.c **** {
 142:../CMSIS/core_cm3.c **** 	clrex
 143:../CMSIS/core_cm3.c **** }
 144:../CMSIS/core_cm3.c **** 
 145:../CMSIS/core_cm3.c **** /**
 146:../CMSIS/core_cm3.c ****  * @brief  Return the Base Priority value
 147:../CMSIS/core_cm3.c ****  *
 148:../CMSIS/core_cm3.c ****  * @return BasePriority
 149:../CMSIS/core_cm3.c ****  *
 150:../CMSIS/core_cm3.c ****  * Return the content of the base priority register
 151:../CMSIS/core_cm3.c ****  */
 152:../CMSIS/core_cm3.c **** __ASM uint32_t __get_BASEPRI(void)
 153:../CMSIS/core_cm3.c **** {
 154:../CMSIS/core_cm3.c **** 	mrs r0, basepri
 155:../CMSIS/core_cm3.c **** 	bx lr
 156:../CMSIS/core_cm3.c **** }
 157:../CMSIS/core_cm3.c **** 
 158:../CMSIS/core_cm3.c **** /**
 159:../CMSIS/core_cm3.c ****  * @brief  Set the Base Priority value
 160:../CMSIS/core_cm3.c ****  *
 161:../CMSIS/core_cm3.c ****  * @param  basePri  BasePriority
 162:../CMSIS/core_cm3.c ****  *
 163:../CMSIS/core_cm3.c ****  * Set the base priority register
 164:../CMSIS/core_cm3.c ****  */
 165:../CMSIS/core_cm3.c **** __ASM void __set_BASEPRI(uint32_t basePri)
 166:../CMSIS/core_cm3.c **** {
 167:../CMSIS/core_cm3.c **** 	msr basepri, r0
 168:../CMSIS/core_cm3.c **** 	bx lr
 169:../CMSIS/core_cm3.c **** }
 170:../CMSIS/core_cm3.c **** 
 171:../CMSIS/core_cm3.c **** /**
 172:../CMSIS/core_cm3.c ****  * @brief  Return the Priority Mask value
 173:../CMSIS/core_cm3.c ****  *
 174:../CMSIS/core_cm3.c ****  * @return PriMask
 175:../CMSIS/core_cm3.c ****  *
 176:../CMSIS/core_cm3.c ****  * Return state of the priority mask bit from the priority mask register
 177:../CMSIS/core_cm3.c ****  */
 178:../CMSIS/core_cm3.c **** __ASM uint32_t __get_PRIMASK(void)
 179:../CMSIS/core_cm3.c **** {
 180:../CMSIS/core_cm3.c **** 	mrs r0, primask
 181:../CMSIS/core_cm3.c **** 	bx lr
 182:../CMSIS/core_cm3.c **** }
 183:../CMSIS/core_cm3.c **** 
 184:../CMSIS/core_cm3.c **** /**
 185:../CMSIS/core_cm3.c ****  * @brief  Set the Priority Mask value
 186:../CMSIS/core_cm3.c ****  *
 187:../CMSIS/core_cm3.c ****  * @param  priMask  PriMask
 188:../CMSIS/core_cm3.c ****  *
 189:../CMSIS/core_cm3.c ****  * Set the priority mask bit in the priority mask register
 190:../CMSIS/core_cm3.c ****  */
 191:../CMSIS/core_cm3.c **** __ASM void __set_PRIMASK(uint32_t priMask)
 192:../CMSIS/core_cm3.c **** {
 193:../CMSIS/core_cm3.c **** 	msr primask, r0
 194:../CMSIS/core_cm3.c **** 	bx lr
 195:../CMSIS/core_cm3.c **** }
 196:../CMSIS/core_cm3.c **** 
 197:../CMSIS/core_cm3.c **** /**
 198:../CMSIS/core_cm3.c ****  * @brief  Return the Fault Mask value
 199:../CMSIS/core_cm3.c ****  *
 200:../CMSIS/core_cm3.c ****  * @return FaultMask
 201:../CMSIS/core_cm3.c ****  *
 202:../CMSIS/core_cm3.c ****  * Return the content of the fault mask register
 203:../CMSIS/core_cm3.c ****  */
 204:../CMSIS/core_cm3.c **** __ASM uint32_t __get_FAULTMASK(void)
 205:../CMSIS/core_cm3.c **** {
 206:../CMSIS/core_cm3.c **** 	mrs r0, faultmask
 207:../CMSIS/core_cm3.c **** 	bx lr
 208:../CMSIS/core_cm3.c **** }
 209:../CMSIS/core_cm3.c **** 
 210:../CMSIS/core_cm3.c **** /**
 211:../CMSIS/core_cm3.c ****  * @brief  Set the Fault Mask value
 212:../CMSIS/core_cm3.c ****  *
 213:../CMSIS/core_cm3.c ****  * @param  faultMask  faultMask value
 214:../CMSIS/core_cm3.c ****  *
 215:../CMSIS/core_cm3.c ****  * Set the fault mask register
 216:../CMSIS/core_cm3.c ****  */
 217:../CMSIS/core_cm3.c **** __ASM void __set_FAULTMASK(uint32_t faultMask)
 218:../CMSIS/core_cm3.c **** {
 219:../CMSIS/core_cm3.c **** 	msr faultmask, r0
 220:../CMSIS/core_cm3.c **** 	bx lr
 221:../CMSIS/core_cm3.c **** }
 222:../CMSIS/core_cm3.c **** 
 223:../CMSIS/core_cm3.c **** /**
 224:../CMSIS/core_cm3.c ****  * @brief  Return the Control Register value
 225:../CMSIS/core_cm3.c ****  * 
 226:../CMSIS/core_cm3.c ****  * @return Control value
 227:../CMSIS/core_cm3.c ****  *
 228:../CMSIS/core_cm3.c ****  * Return the content of the control register
 229:../CMSIS/core_cm3.c ****  */
 230:../CMSIS/core_cm3.c **** __ASM uint32_t __get_CONTROL(void)
 231:../CMSIS/core_cm3.c **** {
 232:../CMSIS/core_cm3.c **** 	mrs r0, control
 233:../CMSIS/core_cm3.c **** 	bx lr
 234:../CMSIS/core_cm3.c **** }
 235:../CMSIS/core_cm3.c **** 
 236:../CMSIS/core_cm3.c **** /**
 237:../CMSIS/core_cm3.c ****  * @brief  Set the Control Register value
 238:../CMSIS/core_cm3.c ****  *
 239:../CMSIS/core_cm3.c ****  * @param  control  Control value
 240:../CMSIS/core_cm3.c ****  *
 241:../CMSIS/core_cm3.c ****  * Set the control register
 242:../CMSIS/core_cm3.c ****  */
 243:../CMSIS/core_cm3.c **** __ASM void __set_CONTROL(uint32_t control)
 244:../CMSIS/core_cm3.c **** {
 245:../CMSIS/core_cm3.c **** 	msr control, r0
 246:../CMSIS/core_cm3.c **** 	bx lr
 247:../CMSIS/core_cm3.c **** }
 248:../CMSIS/core_cm3.c **** 
 249:../CMSIS/core_cm3.c **** #endif /* __ARMCC_VERSION  */ 
 250:../CMSIS/core_cm3.c **** 
 251:../CMSIS/core_cm3.c **** #elif (defined (__ICCARM__)) /*------------------ ICC Compiler -------------------*/
 252:../CMSIS/core_cm3.c **** /* IAR iccarm specific functions */
 253:../CMSIS/core_cm3.c **** #pragma diag_suppress=Pe940
 254:../CMSIS/core_cm3.c **** 
 255:../CMSIS/core_cm3.c **** /**
 256:../CMSIS/core_cm3.c ****  * @brief  Return the Process Stack Pointer
 257:../CMSIS/core_cm3.c ****  *
 258:../CMSIS/core_cm3.c ****  * @return ProcessStackPointer
 259:../CMSIS/core_cm3.c ****  *
 260:../CMSIS/core_cm3.c ****  * Return the actual process stack pointer
 261:../CMSIS/core_cm3.c ****  */
 262:../CMSIS/core_cm3.c **** uint32_t __get_PSP(void)
 263:../CMSIS/core_cm3.c **** {
 264:../CMSIS/core_cm3.c **** 	__ASM("mrs r0, psp");
 265:../CMSIS/core_cm3.c **** 	__ASM("bx lr");
 266:../CMSIS/core_cm3.c **** }
 267:../CMSIS/core_cm3.c **** 
 268:../CMSIS/core_cm3.c **** /**
 269:../CMSIS/core_cm3.c ****  * @brief  Set the Process Stack Pointer
 270:../CMSIS/core_cm3.c ****  *
 271:../CMSIS/core_cm3.c ****  * @param  topOfProcStack  Process Stack Pointer
 272:../CMSIS/core_cm3.c ****  *
 273:../CMSIS/core_cm3.c ****  * Assign the value ProcessStackPointer to the MSP 
 274:../CMSIS/core_cm3.c ****  * (process stack pointer) Cortex processor register
 275:../CMSIS/core_cm3.c ****  */
 276:../CMSIS/core_cm3.c **** void __set_PSP(uint32_t topOfProcStack)
 277:../CMSIS/core_cm3.c **** {
 278:../CMSIS/core_cm3.c **** 	__ASM("msr psp, r0");
 279:../CMSIS/core_cm3.c **** 	__ASM("bx lr");
 280:../CMSIS/core_cm3.c **** }
 281:../CMSIS/core_cm3.c **** 
 282:../CMSIS/core_cm3.c **** /**
 283:../CMSIS/core_cm3.c ****  * @brief  Return the Main Stack Pointer
 284:../CMSIS/core_cm3.c ****  *
 285:../CMSIS/core_cm3.c ****  * @return Main Stack Pointer
 286:../CMSIS/core_cm3.c ****  *
 287:../CMSIS/core_cm3.c ****  * Return the current value of the MSP (main stack pointer)
 288:../CMSIS/core_cm3.c ****  * Cortex processor register
 289:../CMSIS/core_cm3.c ****  */
 290:../CMSIS/core_cm3.c **** uint32_t __get_MSP(void)
 291:../CMSIS/core_cm3.c **** {
 292:../CMSIS/core_cm3.c **** 	__ASM("mrs r0, msp");
 293:../CMSIS/core_cm3.c **** 	__ASM("bx lr");
 294:../CMSIS/core_cm3.c **** }
 295:../CMSIS/core_cm3.c **** 
 296:../CMSIS/core_cm3.c **** /**
 297:../CMSIS/core_cm3.c ****  * @brief  Set the Main Stack Pointer
 298:../CMSIS/core_cm3.c ****  *
 299:../CMSIS/core_cm3.c ****  * @param  topOfMainStack  Main Stack Pointer
 300:../CMSIS/core_cm3.c ****  *
 301:../CMSIS/core_cm3.c ****  * Assign the value mainStackPointer to the MSP 
 302:../CMSIS/core_cm3.c ****  * (main stack pointer) Cortex processor register
 303:../CMSIS/core_cm3.c ****  */
 304:../CMSIS/core_cm3.c **** void __set_MSP(uint32_t topOfMainStack)
 305:../CMSIS/core_cm3.c **** {
 306:../CMSIS/core_cm3.c **** 	__ASM("msr msp, r0");
 307:../CMSIS/core_cm3.c **** 	__ASM("bx lr");
 308:../CMSIS/core_cm3.c **** }
 309:../CMSIS/core_cm3.c **** 
 310:../CMSIS/core_cm3.c **** /**
 311:../CMSIS/core_cm3.c ****  * @brief  Reverse byte order in unsigned short value
 312:../CMSIS/core_cm3.c ****  *
 313:../CMSIS/core_cm3.c ****  * @param  value  value to reverse
 314:../CMSIS/core_cm3.c ****  * @return        reversed value
 315:../CMSIS/core_cm3.c ****  *
 316:../CMSIS/core_cm3.c ****  * Reverse byte order in unsigned short value
 317:../CMSIS/core_cm3.c ****  */
 318:../CMSIS/core_cm3.c **** uint32_t __REV16(uint16_t value)
 319:../CMSIS/core_cm3.c **** {
 320:../CMSIS/core_cm3.c **** 	__ASM("rev16 r0, r0");
 321:../CMSIS/core_cm3.c **** 	__ASM("bx lr");
 322:../CMSIS/core_cm3.c **** }
 323:../CMSIS/core_cm3.c **** 
 324:../CMSIS/core_cm3.c **** /**
 325:../CMSIS/core_cm3.c ****  * @brief  Reverse bit order of value
 326:../CMSIS/core_cm3.c ****  *
 327:../CMSIS/core_cm3.c ****  * @param  value  value to reverse
 328:../CMSIS/core_cm3.c ****  * @return        reversed value
 329:../CMSIS/core_cm3.c ****  *
 330:../CMSIS/core_cm3.c ****  * Reverse bit order of value
 331:../CMSIS/core_cm3.c ****  */
 332:../CMSIS/core_cm3.c **** uint32_t __RBIT(uint32_t value)
 333:../CMSIS/core_cm3.c **** {
 334:../CMSIS/core_cm3.c **** 	__ASM("rbit r0, r0");
 335:../CMSIS/core_cm3.c **** 	__ASM("bx lr");
 336:../CMSIS/core_cm3.c **** }
 337:../CMSIS/core_cm3.c **** 
 338:../CMSIS/core_cm3.c **** /**
 339:../CMSIS/core_cm3.c ****  * @brief  LDR Exclusive (8 bit)
 340:../CMSIS/core_cm3.c ****  *
 341:../CMSIS/core_cm3.c ****  * @param  *addr  address pointer
 342:../CMSIS/core_cm3.c ****  * @return        value of (*address)
 343:../CMSIS/core_cm3.c ****  *
 344:../CMSIS/core_cm3.c ****  * Exclusive LDR command for 8 bit values)
 345:../CMSIS/core_cm3.c ****  */
 346:../CMSIS/core_cm3.c **** uint8_t __LDREXB(uint8_t *addr)
 347:../CMSIS/core_cm3.c **** {
 348:../CMSIS/core_cm3.c **** 	__ASM("ldrexb r0, [r0]");
 349:../CMSIS/core_cm3.c **** 	__ASM("bx lr");
 350:../CMSIS/core_cm3.c **** }
 351:../CMSIS/core_cm3.c **** 
 352:../CMSIS/core_cm3.c **** /**
 353:../CMSIS/core_cm3.c ****  * @brief  LDR Exclusive (16 bit)
 354:../CMSIS/core_cm3.c ****  *
 355:../CMSIS/core_cm3.c ****  * @param  *addr  address pointer
 356:../CMSIS/core_cm3.c ****  * @return        value of (*address)
 357:../CMSIS/core_cm3.c ****  *
 358:../CMSIS/core_cm3.c ****  * Exclusive LDR command for 16 bit values
 359:../CMSIS/core_cm3.c ****  */
 360:../CMSIS/core_cm3.c **** uint16_t __LDREXH(uint16_t *addr)
 361:../CMSIS/core_cm3.c **** {
 362:../CMSIS/core_cm3.c **** 	__ASM("ldrexh r0, [r0]");
 363:../CMSIS/core_cm3.c **** 	__ASM("bx lr");
 364:../CMSIS/core_cm3.c **** }
 365:../CMSIS/core_cm3.c **** 
 366:../CMSIS/core_cm3.c **** /**
 367:../CMSIS/core_cm3.c ****  * @brief  LDR Exclusive (32 bit)
 368:../CMSIS/core_cm3.c ****  *
 369:../CMSIS/core_cm3.c ****  * @param  *addr  address pointer
 370:../CMSIS/core_cm3.c ****  * @return        value of (*address)
 371:../CMSIS/core_cm3.c ****  *
 372:../CMSIS/core_cm3.c ****  * Exclusive LDR command for 32 bit values
 373:../CMSIS/core_cm3.c ****  */
 374:../CMSIS/core_cm3.c **** uint32_t __LDREXW(uint32_t *addr)
 375:../CMSIS/core_cm3.c **** {
 376:../CMSIS/core_cm3.c **** 	__ASM("ldrex r0, [r0]");
 377:../CMSIS/core_cm3.c **** 	__ASM("bx lr");
 378:../CMSIS/core_cm3.c **** }
 379:../CMSIS/core_cm3.c **** 
 380:../CMSIS/core_cm3.c **** /**
 381:../CMSIS/core_cm3.c ****  * @brief  STR Exclusive (8 bit)
 382:../CMSIS/core_cm3.c ****  *
 383:../CMSIS/core_cm3.c ****  * @param  value  value to store
 384:../CMSIS/core_cm3.c ****  * @param  *addr  address pointer
 385:../CMSIS/core_cm3.c ****  * @return        successful / failed
 386:../CMSIS/core_cm3.c ****  *
 387:../CMSIS/core_cm3.c ****  * Exclusive STR command for 8 bit values
 388:../CMSIS/core_cm3.c ****  */
 389:../CMSIS/core_cm3.c **** uint32_t __STREXB(uint8_t value, uint8_t *addr)
 390:../CMSIS/core_cm3.c **** {
 391:../CMSIS/core_cm3.c **** 	__ASM("strexb r0, r0, [r1]");
 392:../CMSIS/core_cm3.c **** 	__ASM("bx lr");
 393:../CMSIS/core_cm3.c **** }
 394:../CMSIS/core_cm3.c **** 
 395:../CMSIS/core_cm3.c **** /**
 396:../CMSIS/core_cm3.c ****  * @brief  STR Exclusive (16 bit)
 397:../CMSIS/core_cm3.c ****  *
 398:../CMSIS/core_cm3.c ****  * @param  value  value to store
 399:../CMSIS/core_cm3.c ****  * @param  *addr  address pointer
 400:../CMSIS/core_cm3.c ****  * @return        successful / failed
 401:../CMSIS/core_cm3.c ****  *
 402:../CMSIS/core_cm3.c ****  * Exclusive STR command for 16 bit values
 403:../CMSIS/core_cm3.c ****  */
 404:../CMSIS/core_cm3.c **** uint32_t __STREXH(uint16_t value, uint16_t *addr)
 405:../CMSIS/core_cm3.c **** {
 406:../CMSIS/core_cm3.c **** 	__ASM("strexh r0, r0, [r1]");
 407:../CMSIS/core_cm3.c **** 	__ASM("bx lr");
 408:../CMSIS/core_cm3.c **** }
 409:../CMSIS/core_cm3.c **** 
 410:../CMSIS/core_cm3.c **** /**
 411:../CMSIS/core_cm3.c ****  * @brief  STR Exclusive (32 bit)
 412:../CMSIS/core_cm3.c ****  *
 413:../CMSIS/core_cm3.c ****  * @param  value  value to store
 414:../CMSIS/core_cm3.c ****  * @param  *addr  address pointer
 415:../CMSIS/core_cm3.c ****  * @return        successful / failed
 416:../CMSIS/core_cm3.c ****  *
 417:../CMSIS/core_cm3.c ****  * Exclusive STR command for 32 bit values
 418:../CMSIS/core_cm3.c ****  */
 419:../CMSIS/core_cm3.c **** uint32_t __STREXW(uint32_t value, uint32_t *addr)
 420:../CMSIS/core_cm3.c **** {
 421:../CMSIS/core_cm3.c **** 	__ASM("strex r0, r0, [r1]");
 422:../CMSIS/core_cm3.c **** 	__ASM("bx lr");
 423:../CMSIS/core_cm3.c **** }
 424:../CMSIS/core_cm3.c **** 
 425:../CMSIS/core_cm3.c **** #pragma diag_default=Pe940
 426:../CMSIS/core_cm3.c **** 
 427:../CMSIS/core_cm3.c **** #elif (defined (__GNUC__)) /*------------------ GNU Compiler ---------------------*/
 428:../CMSIS/core_cm3.c **** /* GNU gcc specific functions */
 429:../CMSIS/core_cm3.c **** 
 430:../CMSIS/core_cm3.c **** /**
 431:../CMSIS/core_cm3.c ****  * @brief  Return the Process Stack Pointer
 432:../CMSIS/core_cm3.c ****  *
 433:../CMSIS/core_cm3.c ****  * @return ProcessStackPointer
 434:../CMSIS/core_cm3.c ****  *
 435:../CMSIS/core_cm3.c ****  * Return the actual process stack pointer
 436:../CMSIS/core_cm3.c ****  */
 437:../CMSIS/core_cm3.c **** uint32_t __get_PSP(void) __attribute__( ( naked ) );
 438:../CMSIS/core_cm3.c **** uint32_t __get_PSP(void) {
  27              		.loc 1 438 0
  28              		.cfi_startproc
  29              		@ Naked Function: prologue and epilogue provided by programmer.
  30              		@ args = 0, pretend = 0, frame = 0
  31              		@ frame_needed = 1, uses_anonymous_args = 0
 439:../CMSIS/core_cm3.c **** 	uint32_t result = 0;
  32              		.loc 1 439 0
  33 0000 4FF00004 		mov	r4, #0
 440:../CMSIS/core_cm3.c **** 
 441:../CMSIS/core_cm3.c **** 	__ASM volatile ("MRS %0, psp\n\t"
  34              		.loc 1 441 0
  35              	@ 441 "../CMSIS/core_cm3.c" 1
  36 0004 EFF30984 		MRS r4, psp
  37 0008 2046     		MOV r0, r4 
  38 000a 7047     		BX  lr     
  39              		
  40              	@ 0 "" 2
 442:../CMSIS/core_cm3.c **** 			"MOV r0, %0 \n\t"
 443:../CMSIS/core_cm3.c **** 			"BX  lr     \n\t" : "=r" (result) );
 444:../CMSIS/core_cm3.c **** 	return (result);
  41              		.loc 1 444 0
  42              		.thumb
  43 000c 2346     		mov	r3, r4
 445:../CMSIS/core_cm3.c **** }
  44              		.loc 1 445 0
  45 000e 1846     		mov	r0, r3
  46              		.cfi_endproc
  47              	.LFE0:
  49              		.section	.text.__set_PSP,"ax",%progbits
  50              		.align	2
  51              		.global	__set_PSP
  52              		.thumb
  53              		.thumb_func
  55              	__set_PSP:
  56              	.LFB1:
 446:../CMSIS/core_cm3.c **** 
 447:../CMSIS/core_cm3.c **** /**
 448:../CMSIS/core_cm3.c ****  * @brief  Set the Process Stack Pointer
 449:../CMSIS/core_cm3.c ****  *
 450:../CMSIS/core_cm3.c ****  * @param  topOfProcStack  Process Stack Pointer
 451:../CMSIS/core_cm3.c ****  *
 452:../CMSIS/core_cm3.c ****  * Assign the value ProcessStackPointer to the MSP 
 453:../CMSIS/core_cm3.c ****  * (process stack pointer) Cortex processor register
 454:../CMSIS/core_cm3.c ****  */
 455:../CMSIS/core_cm3.c **** void __set_PSP(uint32_t topOfProcStack) __attribute__( ( naked ) );
 456:../CMSIS/core_cm3.c **** void __set_PSP(uint32_t topOfProcStack) {
  57              		.loc 1 456 0
  58              		.cfi_startproc
  59              		@ Naked Function: prologue and epilogue provided by programmer.
  60              		@ args = 0, pretend = 0, frame = 0
  61              		@ frame_needed = 1, uses_anonymous_args = 0
  62 0000 0346     		mov	r3, r0
 457:../CMSIS/core_cm3.c **** 	__ASM volatile ("MSR psp, %0\n\t"
  63              		.loc 1 457 0
  64              	@ 457 "../CMSIS/core_cm3.c" 1
  65 0002 83F30988 		MSR psp, r3
  66 0006 7047     		BX  lr     
  67              		
  68              	@ 0 "" 2
 458:../CMSIS/core_cm3.c **** 			"BX  lr     \n\t" : : "r" (topOfProcStack) );
 459:../CMSIS/core_cm3.c **** }
  69              		.loc 1 459 0
  70              		.thumb
  71              		.cfi_endproc
  72              	.LFE1:
  74              		.section	.text.__get_MSP,"ax",%progbits
  75              		.align	2
  76              		.global	__get_MSP
  77              		.thumb
  78              		.thumb_func
  80              	__get_MSP:
  81              	.LFB2:
 460:../CMSIS/core_cm3.c **** 
 461:../CMSIS/core_cm3.c **** /**
 462:../CMSIS/core_cm3.c ****  * @brief  Return the Main Stack Pointer
 463:../CMSIS/core_cm3.c ****  *
 464:../CMSIS/core_cm3.c ****  * @return Main Stack Pointer
 465:../CMSIS/core_cm3.c ****  *
 466:../CMSIS/core_cm3.c ****  * Return the current value of the MSP (main stack pointer)
 467:../CMSIS/core_cm3.c ****  * Cortex processor register
 468:../CMSIS/core_cm3.c ****  */
 469:../CMSIS/core_cm3.c **** uint32_t __get_MSP(void) __attribute__( ( naked ) );
 470:../CMSIS/core_cm3.c **** uint32_t __get_MSP(void) {
  82              		.loc 1 470 0
  83              		.cfi_startproc
  84              		@ Naked Function: prologue and epilogue provided by programmer.
  85              		@ args = 0, pretend = 0, frame = 0
  86              		@ frame_needed = 1, uses_anonymous_args = 0
 471:../CMSIS/core_cm3.c **** 	uint32_t result = 0;
  87              		.loc 1 471 0
  88 0000 4FF00004 		mov	r4, #0
 472:../CMSIS/core_cm3.c **** 
 473:../CMSIS/core_cm3.c **** 	__ASM volatile ("MRS %0, msp\n\t"
  89              		.loc 1 473 0
  90              	@ 473 "../CMSIS/core_cm3.c" 1
  91 0004 EFF30884 		MRS r4, msp
  92 0008 2046     		MOV r0, r4 
  93 000a 7047     		BX  lr     
  94              		
  95              	@ 0 "" 2
 474:../CMSIS/core_cm3.c **** 			"MOV r0, %0 \n\t"
 475:../CMSIS/core_cm3.c **** 			"BX  lr     \n\t" : "=r" (result) );
 476:../CMSIS/core_cm3.c **** 	return (result);
  96              		.loc 1 476 0
  97              		.thumb
  98 000c 2346     		mov	r3, r4
 477:../CMSIS/core_cm3.c **** }
  99              		.loc 1 477 0
 100 000e 1846     		mov	r0, r3
 101              		.cfi_endproc
 102              	.LFE2:
 104              		.section	.text.__set_MSP,"ax",%progbits
 105              		.align	2
 106              		.global	__set_MSP
 107              		.thumb
 108              		.thumb_func
 110              	__set_MSP:
 111              	.LFB3:
 478:../CMSIS/core_cm3.c **** 
 479:../CMSIS/core_cm3.c **** /**
 480:../CMSIS/core_cm3.c ****  * @brief  Set the Main Stack Pointer
 481:../CMSIS/core_cm3.c ****  *
 482:../CMSIS/core_cm3.c ****  * @param  topOfMainStack  Main Stack Pointer
 483:../CMSIS/core_cm3.c ****  *
 484:../CMSIS/core_cm3.c ****  * Assign the value mainStackPointer to the MSP 
 485:../CMSIS/core_cm3.c ****  * (main stack pointer) Cortex processor register
 486:../CMSIS/core_cm3.c ****  */
 487:../CMSIS/core_cm3.c **** void __set_MSP(uint32_t topOfMainStack) __attribute__( ( naked ) );
 488:../CMSIS/core_cm3.c **** void __set_MSP(uint32_t topOfMainStack) {
 112              		.loc 1 488 0
 113              		.cfi_startproc
 114              		@ Naked Function: prologue and epilogue provided by programmer.
 115              		@ args = 0, pretend = 0, frame = 0
 116              		@ frame_needed = 1, uses_anonymous_args = 0
 117 0000 0346     		mov	r3, r0
 489:../CMSIS/core_cm3.c **** 	__ASM volatile ("MSR msp, %0\n\t"
 118              		.loc 1 489 0
 119              	@ 489 "../CMSIS/core_cm3.c" 1
 120 0002 83F30888 		MSR msp, r3
 121 0006 7047     		BX  lr     
 122              		
 123              	@ 0 "" 2
 490:../CMSIS/core_cm3.c **** 			"BX  lr     \n\t" : : "r" (topOfMainStack) );
 491:../CMSIS/core_cm3.c **** }
 124              		.loc 1 491 0
 125              		.thumb
 126              		.cfi_endproc
 127              	.LFE3:
 129              		.section	.text.__get_BASEPRI,"ax",%progbits
 130              		.align	2
 131              		.global	__get_BASEPRI
 132              		.thumb
 133              		.thumb_func
 135              	__get_BASEPRI:
 136              	.LFB4:
 492:../CMSIS/core_cm3.c **** 
 493:../CMSIS/core_cm3.c **** /**
 494:../CMSIS/core_cm3.c ****  * @brief  Return the Base Priority value
 495:../CMSIS/core_cm3.c ****  *
 496:../CMSIS/core_cm3.c ****  * @return BasePriority
 497:../CMSIS/core_cm3.c ****  *
 498:../CMSIS/core_cm3.c ****  * Return the content of the base priority register
 499:../CMSIS/core_cm3.c ****  */
 500:../CMSIS/core_cm3.c **** uint32_t __get_BASEPRI(void) {
 137              		.loc 1 500 0
 138              		.cfi_startproc
 139              		@ args = 0, pretend = 0, frame = 8
 140              		@ frame_needed = 1, uses_anonymous_args = 0
 141              		@ link register save eliminated.
 142 0000 90B4     		push	{r4, r7}
 143              	.LCFI0:
 144              		.cfi_def_cfa_offset 8
 145              		.cfi_offset 4, -8
 146              		.cfi_offset 7, -4
 147 0002 82B0     		sub	sp, sp, #8
 148              	.LCFI1:
 149              		.cfi_def_cfa_offset 16
 150 0004 00AF     		add	r7, sp, #0
 151              	.LCFI2:
 152              		.cfi_def_cfa_register 7
 501:../CMSIS/core_cm3.c **** 	uint32_t result = 0;
 153              		.loc 1 501 0
 154 0006 4FF00003 		mov	r3, #0
 155 000a 7B60     		str	r3, [r7, #4]
 502:../CMSIS/core_cm3.c **** 
 503:../CMSIS/core_cm3.c **** 	__ASM volatile ("MRS %0, basepri_max" : "=r" (result) );
 156              		.loc 1 503 0
 157              	@ 503 "../CMSIS/core_cm3.c" 1
 158 000c EFF31284 		MRS r4, basepri_max
 159              	@ 0 "" 2
 160              		.thumb
 161 0010 7C60     		str	r4, [r7, #4]
 504:../CMSIS/core_cm3.c **** 	return (result);
 162              		.loc 1 504 0
 163 0012 7B68     		ldr	r3, [r7, #4]
 505:../CMSIS/core_cm3.c **** }
 164              		.loc 1 505 0
 165 0014 1846     		mov	r0, r3
 166 0016 07F10807 		add	r7, r7, #8
 167 001a BD46     		mov	sp, r7
 168 001c 90BC     		pop	{r4, r7}
 169 001e 7047     		bx	lr
 170              		.cfi_endproc
 171              	.LFE4:
 173              		.section	.text.__set_BASEPRI,"ax",%progbits
 174              		.align	2
 175              		.global	__set_BASEPRI
 176              		.thumb
 177              		.thumb_func
 179              	__set_BASEPRI:
 180              	.LFB5:
 506:../CMSIS/core_cm3.c **** 
 507:../CMSIS/core_cm3.c **** /**
 508:../CMSIS/core_cm3.c ****  * @brief  Set the Base Priority value
 509:../CMSIS/core_cm3.c ****  *
 510:../CMSIS/core_cm3.c ****  * @param  basePri  BasePriority
 511:../CMSIS/core_cm3.c ****  *
 512:../CMSIS/core_cm3.c ****  * Set the base priority register
 513:../CMSIS/core_cm3.c ****  */
 514:../CMSIS/core_cm3.c **** void __set_BASEPRI(uint32_t value) {
 181              		.loc 1 514 0
 182              		.cfi_startproc
 183              		@ args = 0, pretend = 0, frame = 8
 184              		@ frame_needed = 1, uses_anonymous_args = 0
 185              		@ link register save eliminated.
 186 0000 80B4     		push	{r7}
 187              	.LCFI3:
 188              		.cfi_def_cfa_offset 4
 189              		.cfi_offset 7, -4
 190 0002 83B0     		sub	sp, sp, #12
 191              	.LCFI4:
 192              		.cfi_def_cfa_offset 16
 193 0004 00AF     		add	r7, sp, #0
 194              	.LCFI5:
 195              		.cfi_def_cfa_register 7
 196 0006 7860     		str	r0, [r7, #4]
 515:../CMSIS/core_cm3.c **** 	__ASM volatile ("MSR basepri, %0" : : "r" (value) );
 197              		.loc 1 515 0
 198 0008 7B68     		ldr	r3, [r7, #4]
 199              	@ 515 "../CMSIS/core_cm3.c" 1
 200 000a 83F31188 		MSR basepri, r3
 201              	@ 0 "" 2
 516:../CMSIS/core_cm3.c **** }
 202              		.loc 1 516 0
 203              		.thumb
 204 000e 07F10C07 		add	r7, r7, #12
 205 0012 BD46     		mov	sp, r7
 206 0014 80BC     		pop	{r7}
 207 0016 7047     		bx	lr
 208              		.cfi_endproc
 209              	.LFE5:
 211              		.section	.text.__get_PRIMASK,"ax",%progbits
 212              		.align	2
 213              		.global	__get_PRIMASK
 214              		.thumb
 215              		.thumb_func
 217              	__get_PRIMASK:
 218              	.LFB6:
 517:../CMSIS/core_cm3.c **** 
 518:../CMSIS/core_cm3.c **** /**
 519:../CMSIS/core_cm3.c ****  * @brief  Return the Priority Mask value
 520:../CMSIS/core_cm3.c ****  *
 521:../CMSIS/core_cm3.c ****  * @return PriMask
 522:../CMSIS/core_cm3.c ****  *
 523:../CMSIS/core_cm3.c ****  * Return state of the priority mask bit from the priority mask register
 524:../CMSIS/core_cm3.c ****  */
 525:../CMSIS/core_cm3.c **** uint32_t __get_PRIMASK(void) {
 219              		.loc 1 525 0
 220              		.cfi_startproc
 221              		@ args = 0, pretend = 0, frame = 8
 222              		@ frame_needed = 1, uses_anonymous_args = 0
 223              		@ link register save eliminated.
 224 0000 90B4     		push	{r4, r7}
 225              	.LCFI6:
 226              		.cfi_def_cfa_offset 8
 227              		.cfi_offset 4, -8
 228              		.cfi_offset 7, -4
 229 0002 82B0     		sub	sp, sp, #8
 230              	.LCFI7:
 231              		.cfi_def_cfa_offset 16
 232 0004 00AF     		add	r7, sp, #0
 233              	.LCFI8:
 234              		.cfi_def_cfa_register 7
 526:../CMSIS/core_cm3.c **** 	uint32_t result = 0;
 235              		.loc 1 526 0
 236 0006 4FF00003 		mov	r3, #0
 237 000a 7B60     		str	r3, [r7, #4]
 527:../CMSIS/core_cm3.c **** 
 528:../CMSIS/core_cm3.c **** 	__ASM volatile ("MRS %0, primask" : "=r" (result) );
 238              		.loc 1 528 0
 239              	@ 528 "../CMSIS/core_cm3.c" 1
 240 000c EFF31084 		MRS r4, primask
 241              	@ 0 "" 2
 242              		.thumb
 243 0010 7C60     		str	r4, [r7, #4]
 529:../CMSIS/core_cm3.c **** 	return (result);
 244              		.loc 1 529 0
 245 0012 7B68     		ldr	r3, [r7, #4]
 530:../CMSIS/core_cm3.c **** }
 246              		.loc 1 530 0
 247 0014 1846     		mov	r0, r3
 248 0016 07F10807 		add	r7, r7, #8
 249 001a BD46     		mov	sp, r7
 250 001c 90BC     		pop	{r4, r7}
 251 001e 7047     		bx	lr
 252              		.cfi_endproc
 253              	.LFE6:
 255              		.section	.text.__set_PRIMASK,"ax",%progbits
 256              		.align	2
 257              		.global	__set_PRIMASK
 258              		.thumb
 259              		.thumb_func
 261              	__set_PRIMASK:
 262              	.LFB7:
 531:../CMSIS/core_cm3.c **** 
 532:../CMSIS/core_cm3.c **** /**
 533:../CMSIS/core_cm3.c ****  * @brief  Set the Priority Mask value
 534:../CMSIS/core_cm3.c ****  *
 535:../CMSIS/core_cm3.c ****  * @param  priMask  PriMask
 536:../CMSIS/core_cm3.c ****  *
 537:../CMSIS/core_cm3.c ****  * Set the priority mask bit in the priority mask register
 538:../CMSIS/core_cm3.c ****  */
 539:../CMSIS/core_cm3.c **** void __set_PRIMASK(uint32_t priMask) {
 263              		.loc 1 539 0
 264              		.cfi_startproc
 265              		@ args = 0, pretend = 0, frame = 8
 266              		@ frame_needed = 1, uses_anonymous_args = 0
 267              		@ link register save eliminated.
 268 0000 80B4     		push	{r7}
 269              	.LCFI9:
 270              		.cfi_def_cfa_offset 4
 271              		.cfi_offset 7, -4
 272 0002 83B0     		sub	sp, sp, #12
 273              	.LCFI10:
 274              		.cfi_def_cfa_offset 16
 275 0004 00AF     		add	r7, sp, #0
 276              	.LCFI11:
 277              		.cfi_def_cfa_register 7
 278 0006 7860     		str	r0, [r7, #4]
 540:../CMSIS/core_cm3.c **** 	__ASM volatile ("MSR primask, %0" : : "r" (priMask) );
 279              		.loc 1 540 0
 280 0008 7B68     		ldr	r3, [r7, #4]
 281              	@ 540 "../CMSIS/core_cm3.c" 1
 282 000a 83F31088 		MSR primask, r3
 283              	@ 0 "" 2
 541:../CMSIS/core_cm3.c **** }
 284              		.loc 1 541 0
 285              		.thumb
 286 000e 07F10C07 		add	r7, r7, #12
 287 0012 BD46     		mov	sp, r7
 288 0014 80BC     		pop	{r7}
 289 0016 7047     		bx	lr
 290              		.cfi_endproc
 291              	.LFE7:
 293              		.section	.text.__get_FAULTMASK,"ax",%progbits
 294              		.align	2
 295              		.global	__get_FAULTMASK
 296              		.thumb
 297              		.thumb_func
 299              	__get_FAULTMASK:
 300              	.LFB8:
 542:../CMSIS/core_cm3.c **** 
 543:../CMSIS/core_cm3.c **** /**
 544:../CMSIS/core_cm3.c ****  * @brief  Return the Fault Mask value
 545:../CMSIS/core_cm3.c ****  *
 546:../CMSIS/core_cm3.c ****  * @return FaultMask
 547:../CMSIS/core_cm3.c ****  *
 548:../CMSIS/core_cm3.c ****  * Return the content of the fault mask register
 549:../CMSIS/core_cm3.c ****  */
 550:../CMSIS/core_cm3.c **** uint32_t __get_FAULTMASK(void) {
 301              		.loc 1 550 0
 302              		.cfi_startproc
 303              		@ args = 0, pretend = 0, frame = 8
 304              		@ frame_needed = 1, uses_anonymous_args = 0
 305              		@ link register save eliminated.
 306 0000 90B4     		push	{r4, r7}
 307              	.LCFI12:
 308              		.cfi_def_cfa_offset 8
 309              		.cfi_offset 4, -8
 310              		.cfi_offset 7, -4
 311 0002 82B0     		sub	sp, sp, #8
 312              	.LCFI13:
 313              		.cfi_def_cfa_offset 16
 314 0004 00AF     		add	r7, sp, #0
 315              	.LCFI14:
 316              		.cfi_def_cfa_register 7
 551:../CMSIS/core_cm3.c **** 	uint32_t result = 0;
 317              		.loc 1 551 0
 318 0006 4FF00003 		mov	r3, #0
 319 000a 7B60     		str	r3, [r7, #4]
 552:../CMSIS/core_cm3.c **** 
 553:../CMSIS/core_cm3.c **** 	__ASM volatile ("MRS %0, faultmask" : "=r" (result) );
 320              		.loc 1 553 0
 321              	@ 553 "../CMSIS/core_cm3.c" 1
 322 000c EFF31384 		MRS r4, faultmask
 323              	@ 0 "" 2
 324              		.thumb
 325 0010 7C60     		str	r4, [r7, #4]
 554:../CMSIS/core_cm3.c **** 	return (result);
 326              		.loc 1 554 0
 327 0012 7B68     		ldr	r3, [r7, #4]
 555:../CMSIS/core_cm3.c **** }
 328              		.loc 1 555 0
 329 0014 1846     		mov	r0, r3
 330 0016 07F10807 		add	r7, r7, #8
 331 001a BD46     		mov	sp, r7
 332 001c 90BC     		pop	{r4, r7}
 333 001e 7047     		bx	lr
 334              		.cfi_endproc
 335              	.LFE8:
 337              		.section	.text.__set_FAULTMASK,"ax",%progbits
 338              		.align	2
 339              		.global	__set_FAULTMASK
 340              		.thumb
 341              		.thumb_func
 343              	__set_FAULTMASK:
 344              	.LFB9:
 556:../CMSIS/core_cm3.c **** 
 557:../CMSIS/core_cm3.c **** /**
 558:../CMSIS/core_cm3.c ****  * @brief  Set the Fault Mask value
 559:../CMSIS/core_cm3.c ****  *
 560:../CMSIS/core_cm3.c ****  * @param  faultMask  faultMask value
 561:../CMSIS/core_cm3.c ****  *
 562:../CMSIS/core_cm3.c ****  * Set the fault mask register
 563:../CMSIS/core_cm3.c ****  */
 564:../CMSIS/core_cm3.c **** void __set_FAULTMASK(uint32_t faultMask) {
 345              		.loc 1 564 0
 346              		.cfi_startproc
 347              		@ args = 0, pretend = 0, frame = 8
 348              		@ frame_needed = 1, uses_anonymous_args = 0
 349              		@ link register save eliminated.
 350 0000 80B4     		push	{r7}
 351              	.LCFI15:
 352              		.cfi_def_cfa_offset 4
 353              		.cfi_offset 7, -4
 354 0002 83B0     		sub	sp, sp, #12
 355              	.LCFI16:
 356              		.cfi_def_cfa_offset 16
 357 0004 00AF     		add	r7, sp, #0
 358              	.LCFI17:
 359              		.cfi_def_cfa_register 7
 360 0006 7860     		str	r0, [r7, #4]
 565:../CMSIS/core_cm3.c **** 	__ASM volatile ("MSR faultmask, %0" : : "r" (faultMask) );
 361              		.loc 1 565 0
 362 0008 7B68     		ldr	r3, [r7, #4]
 363              	@ 565 "../CMSIS/core_cm3.c" 1
 364 000a 83F31388 		MSR faultmask, r3
 365              	@ 0 "" 2
 566:../CMSIS/core_cm3.c **** }
 366              		.loc 1 566 0
 367              		.thumb
 368 000e 07F10C07 		add	r7, r7, #12
 369 0012 BD46     		mov	sp, r7
 370 0014 80BC     		pop	{r7}
 371 0016 7047     		bx	lr
 372              		.cfi_endproc
 373              	.LFE9:
 375              		.section	.text.__get_CONTROL,"ax",%progbits
 376              		.align	2
 377              		.global	__get_CONTROL
 378              		.thumb
 379              		.thumb_func
 381              	__get_CONTROL:
 382              	.LFB10:
 567:../CMSIS/core_cm3.c **** 
 568:../CMSIS/core_cm3.c **** /**
 569:../CMSIS/core_cm3.c ****  * @brief  Return the Control Register value
 570:../CMSIS/core_cm3.c ****  * 
 571:../CMSIS/core_cm3.c ****  *  @return Control value
 572:../CMSIS/core_cm3.c ****  *
 573:../CMSIS/core_cm3.c ****  * Return the content of the control register
 574:../CMSIS/core_cm3.c ****  */
 575:../CMSIS/core_cm3.c **** uint32_t __get_CONTROL(void) {
 383              		.loc 1 575 0
 384              		.cfi_startproc
 385              		@ args = 0, pretend = 0, frame = 8
 386              		@ frame_needed = 1, uses_anonymous_args = 0
 387              		@ link register save eliminated.
 388 0000 90B4     		push	{r4, r7}
 389              	.LCFI18:
 390              		.cfi_def_cfa_offset 8
 391              		.cfi_offset 4, -8
 392              		.cfi_offset 7, -4
 393 0002 82B0     		sub	sp, sp, #8
 394              	.LCFI19:
 395              		.cfi_def_cfa_offset 16
 396 0004 00AF     		add	r7, sp, #0
 397              	.LCFI20:
 398              		.cfi_def_cfa_register 7
 576:../CMSIS/core_cm3.c **** 	uint32_t result = 0;
 399              		.loc 1 576 0
 400 0006 4FF00003 		mov	r3, #0
 401 000a 7B60     		str	r3, [r7, #4]
 577:../CMSIS/core_cm3.c **** 
 578:../CMSIS/core_cm3.c **** 	__ASM volatile ("MRS %0, control" : "=r" (result) );
 402              		.loc 1 578 0
 403              	@ 578 "../CMSIS/core_cm3.c" 1
 404 000c EFF31484 		MRS r4, control
 405              	@ 0 "" 2
 406              		.thumb
 407 0010 7C60     		str	r4, [r7, #4]
 579:../CMSIS/core_cm3.c **** 	return (result);
 408              		.loc 1 579 0
 409 0012 7B68     		ldr	r3, [r7, #4]
 580:../CMSIS/core_cm3.c **** }
 410              		.loc 1 580 0
 411 0014 1846     		mov	r0, r3
 412 0016 07F10807 		add	r7, r7, #8
 413 001a BD46     		mov	sp, r7
 414 001c 90BC     		pop	{r4, r7}
 415 001e 7047     		bx	lr
 416              		.cfi_endproc
 417              	.LFE10:
 419              		.section	.text.__set_CONTROL,"ax",%progbits
 420              		.align	2
 421              		.global	__set_CONTROL
 422              		.thumb
 423              		.thumb_func
 425              	__set_CONTROL:
 426              	.LFB11:
 581:../CMSIS/core_cm3.c **** 
 582:../CMSIS/core_cm3.c **** /**
 583:../CMSIS/core_cm3.c ****  * @brief  Set the Control Register value
 584:../CMSIS/core_cm3.c ****  *
 585:../CMSIS/core_cm3.c ****  * @param  control  Control value
 586:../CMSIS/core_cm3.c ****  *
 587:../CMSIS/core_cm3.c ****  * Set the control register
 588:../CMSIS/core_cm3.c ****  */
 589:../CMSIS/core_cm3.c **** void __set_CONTROL(uint32_t control) {
 427              		.loc 1 589 0
 428              		.cfi_startproc
 429              		@ args = 0, pretend = 0, frame = 8
 430              		@ frame_needed = 1, uses_anonymous_args = 0
 431              		@ link register save eliminated.
 432 0000 80B4     		push	{r7}
 433              	.LCFI21:
 434              		.cfi_def_cfa_offset 4
 435              		.cfi_offset 7, -4
 436 0002 83B0     		sub	sp, sp, #12
 437              	.LCFI22:
 438              		.cfi_def_cfa_offset 16
 439 0004 00AF     		add	r7, sp, #0
 440              	.LCFI23:
 441              		.cfi_def_cfa_register 7
 442 0006 7860     		str	r0, [r7, #4]
 590:../CMSIS/core_cm3.c **** 	__ASM volatile ("MSR control, %0" : : "r" (control) );
 443              		.loc 1 590 0
 444 0008 7B68     		ldr	r3, [r7, #4]
 445              	@ 590 "../CMSIS/core_cm3.c" 1
 446 000a 83F31488 		MSR control, r3
 447              	@ 0 "" 2
 591:../CMSIS/core_cm3.c **** }
 448              		.loc 1 591 0
 449              		.thumb
 450 000e 07F10C07 		add	r7, r7, #12
 451 0012 BD46     		mov	sp, r7
 452 0014 80BC     		pop	{r7}
 453 0016 7047     		bx	lr
 454              		.cfi_endproc
 455              	.LFE11:
 457              		.section	.text.__REV,"ax",%progbits
 458              		.align	2
 459              		.global	__REV
 460              		.thumb
 461              		.thumb_func
 463              	__REV:
 464              	.LFB12:
 592:../CMSIS/core_cm3.c **** 
 593:../CMSIS/core_cm3.c **** /**
 594:../CMSIS/core_cm3.c ****  * @brief  Reverse byte order in integer value
 595:../CMSIS/core_cm3.c ****  *
 596:../CMSIS/core_cm3.c ****  * @param  value  value to reverse
 597:../CMSIS/core_cm3.c ****  * @return        reversed value
 598:../CMSIS/core_cm3.c ****  *
 599:../CMSIS/core_cm3.c ****  * Reverse byte order in integer value
 600:../CMSIS/core_cm3.c ****  */
 601:../CMSIS/core_cm3.c **** uint32_t __REV(uint32_t value) {
 465              		.loc 1 601 0
 466              		.cfi_startproc
 467              		@ args = 0, pretend = 0, frame = 16
 468              		@ frame_needed = 1, uses_anonymous_args = 0
 469              		@ link register save eliminated.
 470 0000 90B4     		push	{r4, r7}
 471              	.LCFI24:
 472              		.cfi_def_cfa_offset 8
 473              		.cfi_offset 4, -8
 474              		.cfi_offset 7, -4
 475 0002 84B0     		sub	sp, sp, #16
 476              	.LCFI25:
 477              		.cfi_def_cfa_offset 24
 478 0004 00AF     		add	r7, sp, #0
 479              	.LCFI26:
 480              		.cfi_def_cfa_register 7
 481 0006 7860     		str	r0, [r7, #4]
 602:../CMSIS/core_cm3.c **** 	uint32_t result = 0;
 482              		.loc 1 602 0
 483 0008 4FF00003 		mov	r3, #0
 484 000c FB60     		str	r3, [r7, #12]
 603:../CMSIS/core_cm3.c **** 
 604:../CMSIS/core_cm3.c **** 	__ASM volatile ("rev %0, %1" : "=r" (result) : "r" (value) );
 485              		.loc 1 604 0
 486 000e 7B68     		ldr	r3, [r7, #4]
 487              	@ 604 "../CMSIS/core_cm3.c" 1
 488 0010 1CBA     		rev r4, r3
 489              	@ 0 "" 2
 490              		.thumb
 491 0012 FC60     		str	r4, [r7, #12]
 605:../CMSIS/core_cm3.c **** 	return (result);
 492              		.loc 1 605 0
 493 0014 FB68     		ldr	r3, [r7, #12]
 606:../CMSIS/core_cm3.c **** }
 494              		.loc 1 606 0
 495 0016 1846     		mov	r0, r3
 496 0018 07F11007 		add	r7, r7, #16
 497 001c BD46     		mov	sp, r7
 498 001e 90BC     		pop	{r4, r7}
 499 0020 7047     		bx	lr
 500              		.cfi_endproc
 501              	.LFE12:
 503 0022 00BF     		.section	.text.__REV16,"ax",%progbits
 504              		.align	2
 505              		.global	__REV16
 506              		.thumb
 507              		.thumb_func
 509              	__REV16:
 510              	.LFB13:
 607:../CMSIS/core_cm3.c **** 
 608:../CMSIS/core_cm3.c **** /**
 609:../CMSIS/core_cm3.c ****  * @brief  Reverse byte order in unsigned short value
 610:../CMSIS/core_cm3.c ****  *
 611:../CMSIS/core_cm3.c ****  * @param  value  value to reverse
 612:../CMSIS/core_cm3.c ****  * @return        reversed value
 613:../CMSIS/core_cm3.c ****  *
 614:../CMSIS/core_cm3.c ****  * Reverse byte order in unsigned short value
 615:../CMSIS/core_cm3.c ****  */
 616:../CMSIS/core_cm3.c **** uint32_t __REV16(uint16_t value) {
 511              		.loc 1 616 0
 512              		.cfi_startproc
 513              		@ args = 0, pretend = 0, frame = 16
 514              		@ frame_needed = 1, uses_anonymous_args = 0
 515              		@ link register save eliminated.
 516 0000 90B4     		push	{r4, r7}
 517              	.LCFI27:
 518              		.cfi_def_cfa_offset 8
 519              		.cfi_offset 4, -8
 520              		.cfi_offset 7, -4
 521 0002 84B0     		sub	sp, sp, #16
 522              	.LCFI28:
 523              		.cfi_def_cfa_offset 24
 524 0004 00AF     		add	r7, sp, #0
 525              	.LCFI29:
 526              		.cfi_def_cfa_register 7
 527 0006 0346     		mov	r3, r0
 528 0008 FB80     		strh	r3, [r7, #6]	@ movhi
 617:../CMSIS/core_cm3.c **** 	uint32_t result = 0;
 529              		.loc 1 617 0
 530 000a 4FF00003 		mov	r3, #0
 531 000e FB60     		str	r3, [r7, #12]
 618:../CMSIS/core_cm3.c **** 
 619:../CMSIS/core_cm3.c **** 	__ASM volatile ("rev16 %0, %1" : "=r" (result) : "r" (value) );
 532              		.loc 1 619 0
 533 0010 FB88     		ldrh	r3, [r7, #6]	@ movhi
 534              	@ 619 "../CMSIS/core_cm3.c" 1
 535 0012 5CBA     		rev16 r4, r3
 536              	@ 0 "" 2
 537              		.thumb
 538 0014 FC60     		str	r4, [r7, #12]
 620:../CMSIS/core_cm3.c **** 	return (result);
 539              		.loc 1 620 0
 540 0016 FB68     		ldr	r3, [r7, #12]
 621:../CMSIS/core_cm3.c **** }
 541              		.loc 1 621 0
 542 0018 1846     		mov	r0, r3
 543 001a 07F11007 		add	r7, r7, #16
 544 001e BD46     		mov	sp, r7
 545 0020 90BC     		pop	{r4, r7}
 546 0022 7047     		bx	lr
 547              		.cfi_endproc
 548              	.LFE13:
 550              		.section	.text.__REVSH,"ax",%progbits
 551              		.align	2
 552              		.global	__REVSH
 553              		.thumb
 554              		.thumb_func
 556              	__REVSH:
 557              	.LFB14:
 622:../CMSIS/core_cm3.c **** 
 623:../CMSIS/core_cm3.c **** /**
 624:../CMSIS/core_cm3.c ****  * @brief  Reverse byte order in signed short value with sign extension to integer
 625:../CMSIS/core_cm3.c ****  *
 626:../CMSIS/core_cm3.c ****  * @param  value  value to reverse
 627:../CMSIS/core_cm3.c ****  * @return        reversed value
 628:../CMSIS/core_cm3.c ****  *
 629:../CMSIS/core_cm3.c ****  * Reverse byte order in signed short value with sign extension to integer
 630:../CMSIS/core_cm3.c ****  */
 631:../CMSIS/core_cm3.c **** int32_t __REVSH(int16_t value) {
 558              		.loc 1 631 0
 559              		.cfi_startproc
 560              		@ args = 0, pretend = 0, frame = 16
 561              		@ frame_needed = 1, uses_anonymous_args = 0
 562              		@ link register save eliminated.
 563 0000 90B4     		push	{r4, r7}
 564              	.LCFI30:
 565              		.cfi_def_cfa_offset 8
 566              		.cfi_offset 4, -8
 567              		.cfi_offset 7, -4
 568 0002 84B0     		sub	sp, sp, #16
 569              	.LCFI31:
 570              		.cfi_def_cfa_offset 24
 571 0004 00AF     		add	r7, sp, #0
 572              	.LCFI32:
 573              		.cfi_def_cfa_register 7
 574 0006 0346     		mov	r3, r0
 575 0008 FB80     		strh	r3, [r7, #6]	@ movhi
 632:../CMSIS/core_cm3.c **** 	uint32_t result = 0;
 576              		.loc 1 632 0
 577 000a 4FF00003 		mov	r3, #0
 578 000e FB60     		str	r3, [r7, #12]
 633:../CMSIS/core_cm3.c **** 
 634:../CMSIS/core_cm3.c **** 	__ASM volatile ("revsh %0, %1" : "=r" (result) : "r" (value) );
 579              		.loc 1 634 0
 580 0010 FB88     		ldrh	r3, [r7, #6]	@ movhi
 581              	@ 634 "../CMSIS/core_cm3.c" 1
 582 0012 DCBA     		revsh r4, r3
 583              	@ 0 "" 2
 584              		.thumb
 585 0014 FC60     		str	r4, [r7, #12]
 635:../CMSIS/core_cm3.c **** 	return (result);
 586              		.loc 1 635 0
 587 0016 FB68     		ldr	r3, [r7, #12]
 636:../CMSIS/core_cm3.c **** }
 588              		.loc 1 636 0
 589 0018 1846     		mov	r0, r3
 590 001a 07F11007 		add	r7, r7, #16
 591 001e BD46     		mov	sp, r7
 592 0020 90BC     		pop	{r4, r7}
 593 0022 7047     		bx	lr
 594              		.cfi_endproc
 595              	.LFE14:
 597              		.section	.text.__RBIT,"ax",%progbits
 598              		.align	2
 599              		.global	__RBIT
 600              		.thumb
 601              		.thumb_func
 603              	__RBIT:
 604              	.LFB15:
 637:../CMSIS/core_cm3.c **** 
 638:../CMSIS/core_cm3.c **** /**
 639:../CMSIS/core_cm3.c ****  * @brief  Reverse bit order of value
 640:../CMSIS/core_cm3.c ****  *
 641:../CMSIS/core_cm3.c ****  * @param  value  value to reverse
 642:../CMSIS/core_cm3.c ****  * @return        reversed value
 643:../CMSIS/core_cm3.c ****  *
 644:../CMSIS/core_cm3.c ****  * Reverse bit order of value
 645:../CMSIS/core_cm3.c ****  */
 646:../CMSIS/core_cm3.c **** uint32_t __RBIT(uint32_t value) {
 605              		.loc 1 646 0
 606              		.cfi_startproc
 607              		@ args = 0, pretend = 0, frame = 16
 608              		@ frame_needed = 1, uses_anonymous_args = 0
 609              		@ link register save eliminated.
 610 0000 90B4     		push	{r4, r7}
 611              	.LCFI33:
 612              		.cfi_def_cfa_offset 8
 613              		.cfi_offset 4, -8
 614              		.cfi_offset 7, -4
 615 0002 84B0     		sub	sp, sp, #16
 616              	.LCFI34:
 617              		.cfi_def_cfa_offset 24
 618 0004 00AF     		add	r7, sp, #0
 619              	.LCFI35:
 620              		.cfi_def_cfa_register 7
 621 0006 7860     		str	r0, [r7, #4]
 647:../CMSIS/core_cm3.c **** 	uint32_t result = 0;
 622              		.loc 1 647 0
 623 0008 4FF00003 		mov	r3, #0
 624 000c FB60     		str	r3, [r7, #12]
 648:../CMSIS/core_cm3.c **** 
 649:../CMSIS/core_cm3.c **** 	__ASM volatile ("rbit %0, %1" : "=r" (result) : "r" (value) );
 625              		.loc 1 649 0
 626 000e 7B68     		ldr	r3, [r7, #4]
 627              	@ 649 "../CMSIS/core_cm3.c" 1
 628 0010 93FAA3F4 		rbit r4, r3
 629              	@ 0 "" 2
 630              		.thumb
 631 0014 FC60     		str	r4, [r7, #12]
 650:../CMSIS/core_cm3.c **** 	return (result);
 632              		.loc 1 650 0
 633 0016 FB68     		ldr	r3, [r7, #12]
 651:../CMSIS/core_cm3.c **** }
 634              		.loc 1 651 0
 635 0018 1846     		mov	r0, r3
 636 001a 07F11007 		add	r7, r7, #16
 637 001e BD46     		mov	sp, r7
 638 0020 90BC     		pop	{r4, r7}
 639 0022 7047     		bx	lr
 640              		.cfi_endproc
 641              	.LFE15:
 643              		.section	.text.__LDREXB,"ax",%progbits
 644              		.align	2
 645              		.global	__LDREXB
 646              		.thumb
 647              		.thumb_func
 649              	__LDREXB:
 650              	.LFB16:
 652:../CMSIS/core_cm3.c **** 
 653:../CMSIS/core_cm3.c **** /**
 654:../CMSIS/core_cm3.c ****  * @brief  LDR Exclusive (8 bit)
 655:../CMSIS/core_cm3.c ****  *
 656:../CMSIS/core_cm3.c ****  * @param  *addr  address pointer
 657:../CMSIS/core_cm3.c ****  * @return        value of (*address)
 658:../CMSIS/core_cm3.c ****  *
 659:../CMSIS/core_cm3.c ****  * Exclusive LDR command for 8 bit value
 660:../CMSIS/core_cm3.c ****  */
 661:../CMSIS/core_cm3.c **** uint8_t __LDREXB(uint8_t *addr) {
 651              		.loc 1 661 0
 652              		.cfi_startproc
 653              		@ args = 0, pretend = 0, frame = 16
 654              		@ frame_needed = 1, uses_anonymous_args = 0
 655              		@ link register save eliminated.
 656 0000 90B4     		push	{r4, r7}
 657              	.LCFI36:
 658              		.cfi_def_cfa_offset 8
 659              		.cfi_offset 4, -8
 660              		.cfi_offset 7, -4
 661 0002 84B0     		sub	sp, sp, #16
 662              	.LCFI37:
 663              		.cfi_def_cfa_offset 24
 664 0004 00AF     		add	r7, sp, #0
 665              	.LCFI38:
 666              		.cfi_def_cfa_register 7
 667 0006 7860     		str	r0, [r7, #4]
 662:../CMSIS/core_cm3.c **** 	uint8_t result = 0;
 668              		.loc 1 662 0
 669 0008 4FF00003 		mov	r3, #0
 670 000c FB73     		strb	r3, [r7, #15]
 663:../CMSIS/core_cm3.c **** 
 664:../CMSIS/core_cm3.c **** 	__ASM volatile ("ldrexb %0, [%1]" : "=r" (result) : "r" (addr) );
 671              		.loc 1 664 0
 672 000e 7B68     		ldr	r3, [r7, #4]
 673              	@ 664 "../CMSIS/core_cm3.c" 1
 674 0010 D3E84F4F 		ldrexb r4, [r3]
 675              	@ 0 "" 2
 676              		.thumb
 677 0014 FC73     		strb	r4, [r7, #15]
 665:../CMSIS/core_cm3.c **** 	return (result);
 678              		.loc 1 665 0
 679 0016 FB7B     		ldrb	r3, [r7, #15]	@ zero_extendqisi2
 666:../CMSIS/core_cm3.c **** }
 680              		.loc 1 666 0
 681 0018 1846     		mov	r0, r3
 682 001a 07F11007 		add	r7, r7, #16
 683 001e BD46     		mov	sp, r7
 684 0020 90BC     		pop	{r4, r7}
 685 0022 7047     		bx	lr
 686              		.cfi_endproc
 687              	.LFE16:
 689              		.section	.text.__LDREXH,"ax",%progbits
 690              		.align	2
 691              		.global	__LDREXH
 692              		.thumb
 693              		.thumb_func
 695              	__LDREXH:
 696              	.LFB17:
 667:../CMSIS/core_cm3.c **** 
 668:../CMSIS/core_cm3.c **** /**
 669:../CMSIS/core_cm3.c ****  * @brief  LDR Exclusive (16 bit)
 670:../CMSIS/core_cm3.c ****  *
 671:../CMSIS/core_cm3.c ****  * @param  *addr  address pointer
 672:../CMSIS/core_cm3.c ****  * @return        value of (*address)
 673:../CMSIS/core_cm3.c ****  *
 674:../CMSIS/core_cm3.c ****  * Exclusive LDR command for 16 bit values
 675:../CMSIS/core_cm3.c ****  */
 676:../CMSIS/core_cm3.c **** uint16_t __LDREXH(uint16_t *addr) {
 697              		.loc 1 676 0
 698              		.cfi_startproc
 699              		@ args = 0, pretend = 0, frame = 16
 700              		@ frame_needed = 1, uses_anonymous_args = 0
 701              		@ link register save eliminated.
 702 0000 90B4     		push	{r4, r7}
 703              	.LCFI39:
 704              		.cfi_def_cfa_offset 8
 705              		.cfi_offset 4, -8
 706              		.cfi_offset 7, -4
 707 0002 84B0     		sub	sp, sp, #16
 708              	.LCFI40:
 709              		.cfi_def_cfa_offset 24
 710 0004 00AF     		add	r7, sp, #0
 711              	.LCFI41:
 712              		.cfi_def_cfa_register 7
 713 0006 7860     		str	r0, [r7, #4]
 677:../CMSIS/core_cm3.c **** 	uint16_t result = 0;
 714              		.loc 1 677 0
 715 0008 4FF00003 		mov	r3, #0
 716 000c FB81     		strh	r3, [r7, #14]	@ movhi
 678:../CMSIS/core_cm3.c **** 
 679:../CMSIS/core_cm3.c **** 	__ASM volatile ("ldrexh %0, [%1]" : "=r" (result) : "r" (addr) );
 717              		.loc 1 679 0
 718 000e 7B68     		ldr	r3, [r7, #4]
 719              	@ 679 "../CMSIS/core_cm3.c" 1
 720 0010 D3E85F4F 		ldrexh r4, [r3]
 721              	@ 0 "" 2
 722              		.thumb
 723 0014 FC81     		strh	r4, [r7, #14]	@ movhi
 680:../CMSIS/core_cm3.c **** 	return (result);
 724              		.loc 1 680 0
 725 0016 FB89     		ldrh	r3, [r7, #14]
 681:../CMSIS/core_cm3.c **** }
 726              		.loc 1 681 0
 727 0018 1846     		mov	r0, r3
 728 001a 07F11007 		add	r7, r7, #16
 729 001e BD46     		mov	sp, r7
 730 0020 90BC     		pop	{r4, r7}
 731 0022 7047     		bx	lr
 732              		.cfi_endproc
 733              	.LFE17:
 735              		.section	.text.__LDREXW,"ax",%progbits
 736              		.align	2
 737              		.global	__LDREXW
 738              		.thumb
 739              		.thumb_func
 741              	__LDREXW:
 742              	.LFB18:
 682:../CMSIS/core_cm3.c **** 
 683:../CMSIS/core_cm3.c **** /**
 684:../CMSIS/core_cm3.c ****  * @brief  LDR Exclusive (32 bit)
 685:../CMSIS/core_cm3.c ****  *
 686:../CMSIS/core_cm3.c ****  * @param  *addr  address pointer
 687:../CMSIS/core_cm3.c ****  * @return        value of (*address)
 688:../CMSIS/core_cm3.c ****  *
 689:../CMSIS/core_cm3.c ****  * Exclusive LDR command for 32 bit values
 690:../CMSIS/core_cm3.c ****  */
 691:../CMSIS/core_cm3.c **** uint32_t __LDREXW(uint32_t *addr) {
 743              		.loc 1 691 0
 744              		.cfi_startproc
 745              		@ args = 0, pretend = 0, frame = 16
 746              		@ frame_needed = 1, uses_anonymous_args = 0
 747              		@ link register save eliminated.
 748 0000 90B4     		push	{r4, r7}
 749              	.LCFI42:
 750              		.cfi_def_cfa_offset 8
 751              		.cfi_offset 4, -8
 752              		.cfi_offset 7, -4
 753 0002 84B0     		sub	sp, sp, #16
 754              	.LCFI43:
 755              		.cfi_def_cfa_offset 24
 756 0004 00AF     		add	r7, sp, #0
 757              	.LCFI44:
 758              		.cfi_def_cfa_register 7
 759 0006 7860     		str	r0, [r7, #4]
 692:../CMSIS/core_cm3.c **** 	uint32_t result = 0;
 760              		.loc 1 692 0
 761 0008 4FF00003 		mov	r3, #0
 762 000c FB60     		str	r3, [r7, #12]
 693:../CMSIS/core_cm3.c **** 
 694:../CMSIS/core_cm3.c **** 	__ASM volatile ("ldrex %0, [%1]" : "=r" (result) : "r" (addr) );
 763              		.loc 1 694 0
 764 000e 7B68     		ldr	r3, [r7, #4]
 765              	@ 694 "../CMSIS/core_cm3.c" 1
 766 0010 53E8004F 		ldrex r4, [r3]
 767              	@ 0 "" 2
 768              		.thumb
 769 0014 FC60     		str	r4, [r7, #12]
 695:../CMSIS/core_cm3.c **** 	return (result);
 770              		.loc 1 695 0
 771 0016 FB68     		ldr	r3, [r7, #12]
 696:../CMSIS/core_cm3.c **** }
 772              		.loc 1 696 0
 773 0018 1846     		mov	r0, r3
 774 001a 07F11007 		add	r7, r7, #16
 775 001e BD46     		mov	sp, r7
 776 0020 90BC     		pop	{r4, r7}
 777 0022 7047     		bx	lr
 778              		.cfi_endproc
 779              	.LFE18:
 781              		.section	.text.__STREXB,"ax",%progbits
 782              		.align	2
 783              		.global	__STREXB
 784              		.thumb
 785              		.thumb_func
 787              	__STREXB:
 788              	.LFB19:
 697:../CMSIS/core_cm3.c **** 
 698:../CMSIS/core_cm3.c **** /**
 699:../CMSIS/core_cm3.c ****  * @brief  STR Exclusive (8 bit)
 700:../CMSIS/core_cm3.c ****  *
 701:../CMSIS/core_cm3.c ****  * @param  value  value to store
 702:../CMSIS/core_cm3.c ****  * @param  *addr  address pointer
 703:../CMSIS/core_cm3.c ****  * @return        successful / failed
 704:../CMSIS/core_cm3.c ****  *
 705:../CMSIS/core_cm3.c ****  * Exclusive STR command for 8 bit values
 706:../CMSIS/core_cm3.c ****  */
 707:../CMSIS/core_cm3.c **** uint32_t __STREXB(uint8_t value, uint8_t *addr) {
 789              		.loc 1 707 0
 790              		.cfi_startproc
 791              		@ args = 0, pretend = 0, frame = 16
 792              		@ frame_needed = 1, uses_anonymous_args = 0
 793              		@ link register save eliminated.
 794 0000 90B4     		push	{r4, r7}
 795              	.LCFI45:
 796              		.cfi_def_cfa_offset 8
 797              		.cfi_offset 4, -8
 798              		.cfi_offset 7, -4
 799 0002 84B0     		sub	sp, sp, #16
 800              	.LCFI46:
 801              		.cfi_def_cfa_offset 24
 802 0004 00AF     		add	r7, sp, #0
 803              	.LCFI47:
 804              		.cfi_def_cfa_register 7
 805 0006 0346     		mov	r3, r0
 806 0008 3960     		str	r1, [r7, #0]
 807 000a FB71     		strb	r3, [r7, #7]
 708:../CMSIS/core_cm3.c **** 	uint32_t result = 0;
 808              		.loc 1 708 0
 809 000c 4FF00003 		mov	r3, #0
 810 0010 FB60     		str	r3, [r7, #12]
 709:../CMSIS/core_cm3.c **** 
 710:../CMSIS/core_cm3.c **** 	__ASM volatile ("strexb %0, %2, [%1]" : "=r" (result) : "r" (addr), "r" (value) );
 811              		.loc 1 710 0
 812 0012 3B68     		ldr	r3, [r7, #0]
 813 0014 FA79     		ldrb	r2, [r7, #7]
 814              	@ 710 "../CMSIS/core_cm3.c" 1
 815 0016 C3E8442F 		strexb r4, r2, [r3]
 816              	@ 0 "" 2
 817              		.thumb
 818 001a FC60     		str	r4, [r7, #12]
 711:../CMSIS/core_cm3.c **** 	return (result);
 819              		.loc 1 711 0
 820 001c FB68     		ldr	r3, [r7, #12]
 712:../CMSIS/core_cm3.c **** }
 821              		.loc 1 712 0
 822 001e 1846     		mov	r0, r3
 823 0020 07F11007 		add	r7, r7, #16
 824 0024 BD46     		mov	sp, r7
 825 0026 90BC     		pop	{r4, r7}
 826 0028 7047     		bx	lr
 827              		.cfi_endproc
 828              	.LFE19:
 830 002a 00BF     		.section	.text.__STREXH,"ax",%progbits
 831              		.align	2
 832              		.global	__STREXH
 833              		.thumb
 834              		.thumb_func
 836              	__STREXH:
 837              	.LFB20:
 713:../CMSIS/core_cm3.c **** 
 714:../CMSIS/core_cm3.c **** /**
 715:../CMSIS/core_cm3.c ****  * @brief  STR Exclusive (16 bit)
 716:../CMSIS/core_cm3.c ****  *
 717:../CMSIS/core_cm3.c ****  * @param  value  value to store
 718:../CMSIS/core_cm3.c ****  * @param  *addr  address pointer
 719:../CMSIS/core_cm3.c ****  * @return        successful / failed
 720:../CMSIS/core_cm3.c ****  *
 721:../CMSIS/core_cm3.c ****  * Exclusive STR command for 16 bit values
 722:../CMSIS/core_cm3.c ****  */
 723:../CMSIS/core_cm3.c **** uint32_t __STREXH(uint16_t value, uint16_t *addr) {
 838              		.loc 1 723 0
 839              		.cfi_startproc
 840              		@ args = 0, pretend = 0, frame = 16
 841              		@ frame_needed = 1, uses_anonymous_args = 0
 842              		@ link register save eliminated.
 843 0000 90B4     		push	{r4, r7}
 844              	.LCFI48:
 845              		.cfi_def_cfa_offset 8
 846              		.cfi_offset 4, -8
 847              		.cfi_offset 7, -4
 848 0002 84B0     		sub	sp, sp, #16
 849              	.LCFI49:
 850              		.cfi_def_cfa_offset 24
 851 0004 00AF     		add	r7, sp, #0
 852              	.LCFI50:
 853              		.cfi_def_cfa_register 7
 854 0006 0346     		mov	r3, r0
 855 0008 3960     		str	r1, [r7, #0]
 856 000a FB80     		strh	r3, [r7, #6]	@ movhi
 724:../CMSIS/core_cm3.c **** 	uint32_t result = 0;
 857              		.loc 1 724 0
 858 000c 4FF00003 		mov	r3, #0
 859 0010 FB60     		str	r3, [r7, #12]
 725:../CMSIS/core_cm3.c **** 
 726:../CMSIS/core_cm3.c **** 	__ASM volatile ("strexh %0, %2, [%1]" : "=r" (result) : "r" (addr), "r" (value) );
 860              		.loc 1 726 0
 861 0012 3B68     		ldr	r3, [r7, #0]
 862 0014 FA88     		ldrh	r2, [r7, #6]	@ movhi
 863              	@ 726 "../CMSIS/core_cm3.c" 1
 864 0016 C3E8542F 		strexh r4, r2, [r3]
 865              	@ 0 "" 2
 866              		.thumb
 867 001a FC60     		str	r4, [r7, #12]
 727:../CMSIS/core_cm3.c **** 	return (result);
 868              		.loc 1 727 0
 869 001c FB68     		ldr	r3, [r7, #12]
 728:../CMSIS/core_cm3.c **** }
 870              		.loc 1 728 0
 871 001e 1846     		mov	r0, r3
 872 0020 07F11007 		add	r7, r7, #16
 873 0024 BD46     		mov	sp, r7
 874 0026 90BC     		pop	{r4, r7}
 875 0028 7047     		bx	lr
 876              		.cfi_endproc
 877              	.LFE20:
 879 002a 00BF     		.section	.text.__STREXW,"ax",%progbits
 880              		.align	2
 881              		.global	__STREXW
 882              		.thumb
 883              		.thumb_func
 885              	__STREXW:
 886              	.LFB21:
 729:../CMSIS/core_cm3.c **** 
 730:../CMSIS/core_cm3.c **** /**
 731:../CMSIS/core_cm3.c ****  * @brief  STR Exclusive (32 bit)
 732:../CMSIS/core_cm3.c ****  *
 733:../CMSIS/core_cm3.c ****  * @param  value  value to store
 734:../CMSIS/core_cm3.c ****  * @param  *addr  address pointer
 735:../CMSIS/core_cm3.c ****  * @return        successful / failed
 736:../CMSIS/core_cm3.c ****  *
 737:../CMSIS/core_cm3.c ****  * Exclusive STR command for 32 bit values
 738:../CMSIS/core_cm3.c ****  */
 739:../CMSIS/core_cm3.c **** uint32_t __STREXW(uint32_t value, uint32_t *addr) {
 887              		.loc 1 739 0
 888              		.cfi_startproc
 889              		@ args = 0, pretend = 0, frame = 16
 890              		@ frame_needed = 1, uses_anonymous_args = 0
 891              		@ link register save eliminated.
 892 0000 90B4     		push	{r4, r7}
 893              	.LCFI51:
 894              		.cfi_def_cfa_offset 8
 895              		.cfi_offset 4, -8
 896              		.cfi_offset 7, -4
 897 0002 84B0     		sub	sp, sp, #16
 898              	.LCFI52:
 899              		.cfi_def_cfa_offset 24
 900 0004 00AF     		add	r7, sp, #0
 901              	.LCFI53:
 902              		.cfi_def_cfa_register 7
 903 0006 7860     		str	r0, [r7, #4]
 904 0008 3960     		str	r1, [r7, #0]
 740:../CMSIS/core_cm3.c **** 	uint32_t result = 0;
 905              		.loc 1 740 0
 906 000a 4FF00003 		mov	r3, #0
 907 000e FB60     		str	r3, [r7, #12]
 741:../CMSIS/core_cm3.c **** 
 742:../CMSIS/core_cm3.c **** 	__ASM volatile ("strex %0, %2, [%1]" : "=r" (result) : "r" (addr), "r" (value) );
 908              		.loc 1 742 0
 909 0010 3B68     		ldr	r3, [r7, #0]
 910 0012 7A68     		ldr	r2, [r7, #4]
 911              	@ 742 "../CMSIS/core_cm3.c" 1
 912 0014 43E80024 		strex r4, r2, [r3]
 913              	@ 0 "" 2
 914              		.thumb
 915 0018 FC60     		str	r4, [r7, #12]
 743:../CMSIS/core_cm3.c **** 	return (result);
 916              		.loc 1 743 0
 917 001a FB68     		ldr	r3, [r7, #12]
 744:../CMSIS/core_cm3.c **** }
 918              		.loc 1 744 0
 919 001c 1846     		mov	r0, r3
 920 001e 07F11007 		add	r7, r7, #16
 921 0022 BD46     		mov	sp, r7
 922 0024 90BC     		pop	{r4, r7}
 923 0026 7047     		bx	lr
 924              		.cfi_endproc
 925              	.LFE21:
 927              		.text
 928              	.Letext0:
 929              		.file 2 "/home/frolls/ARM/gcc-arm-none-eabi-4_7-2012q4/bin/../lib/gcc/arm-none-eabi/4.7.3/../../..