   1              		.syntax unified
   2              		.cpu cortex-m3
   3              		.fpu softvfp
   4              		.eabi_attribute 20, 1
   5              		.eabi_attribute 21, 1
   6              		.eabi_attribute 23, 3
   7              		.eabi_attribute 24, 1
   8              		.eabi_attribute 25, 1
   9              		.eabi_attribute 26, 1
  10              		.eabi_attribute 30, 6
  11              		.eabi_attribute 34, 1
  12              		.eabi_attribute 18, 4
  13              		.thumb
  14              		.file	"timer6.c"
  15              		.text
  16              	.Ltext0:
  17              		.cfi_sections	.debug_frame
  18              		.section	.text.TIM6Init,"ax",%progbits
  19              		.align	2
  20              		.global	TIM6Init
  21              		.thumb
  22              		.thumb_func
  24              	TIM6Init:
  25              	.LFB29:
  26              		.file 1 "../Work/Sources/timer6.c"
   1:../Work/Sources/timer6.c **** /*
   2:../Work/Sources/timer6.c ****  * timer6.c
   3:../Work/Sources/timer6.c ****  *
   4:../Work/Sources/timer6.c ****  *  Created on: 21.03.2013
   5:../Work/Sources/timer6.c ****  *      Author: frolls
   6:../Work/Sources/timer6.c ****  */
   7:../Work/Sources/timer6.c **** #include "timer6.h"
   8:../Work/Sources/timer6.c **** 
   9:../Work/Sources/timer6.c **** void TIM6Init()
  10:../Work/Sources/timer6.c **** {
  27              		.loc 1 10 0
  28              		.cfi_startproc
  29              		@ args = 0, pretend = 0, frame = 0
  30              		@ frame_needed = 1, uses_anonymous_args = 0
  31 0000 80B5     		push	{r7, lr}
  32              	.LCFI0:
  33              		.cfi_def_cfa_offset 8
  34              		.cfi_offset 7, -8
  35              		.cfi_offset 14, -4
  36 0002 00AF     		add	r7, sp, #0
  37              	.LCFI1:
  38              		.cfi_def_cfa_register 7
  11:../Work/Sources/timer6.c ****   /* Не забываем затактировать таймер */
  12:../Work/Sources/timer6.c ****   RCC_APB1PeriphClockCmd(RCC_APB1Periph_TIM6, ENABLE);
  39              		.loc 1 12 0
  40 0004 4FF01000 		mov	r0, #16
  41 0008 4FF00101 		mov	r1, #1
  42 000c FFF7FEFF 		bl	RCC_APB1PeriphClockCmd
  13:../Work/Sources/timer6.c ****   /*
  14:../Work/Sources/timer6.c ****   NVIC_Configuration_TIM6();
  15:../Work/Sources/timer6.c **** 
  16:../Work/Sources/timer6.c ****   TIM_DeInit(TIM6);
  17:../Work/Sources/timer6.c **** 
  18:../Work/Sources/timer6.c ****   TIM_TimeBaseInitTypeDef TIM_TimeBaseStructure;
  19:../Work/Sources/timer6.c ****   TIM_TimeBaseStructInit(&TIM_TimeBaseStructure);
  20:../Work/Sources/timer6.c **** 
  21:../Work/Sources/timer6.c ****   TIM_TimeBaseStructure.TIM_Prescaler = (SYS_CLK / PRESCALER_TIM_FREQUENCY) - 1;
  22:../Work/Sources/timer6.c ****   TIM_TimeBaseStructure.TIM_Period = 500;//UINT16_MAX;
  23:../Work/Sources/timer6.c ****   //TIM_SetCounter(TIM6, 1);
  24:../Work/Sources/timer6.c **** 
  25:../Work/Sources/timer6.c ****   //TIM_TimeBaseStructure.TIM_RepetitionCounter = 0;
  26:../Work/Sources/timer6.c ****   TIM_TimeBaseStructure.TIM_ClockDivision = TIM_CKD_DIV1;
  27:../Work/Sources/timer6.c ****   TIM_TimeBaseStructure.TIM_CounterMode = TIM_CounterMode_Up;
  28:../Work/Sources/timer6.c ****   TIM_TimeBaseInit(TIM6, &TIM_TimeBaseStructure);
  29:../Work/Sources/timer6.c ****   TIM_Cmd(TIM6, ENABLE);
  30:../Work/Sources/timer6.c **** 
  31:../Work/Sources/timer6.c ****   TIM_SelectOnePulseMode(TIM6, TIM_OPMode_Single);
  32:../Work/Sources/timer6.c ****   TIM_ClearITPendingBit(TIM6,TIM_IT_Update);
  33:../Work/Sources/timer6.c ****   TIM_ITConfig(TIM6, TIM_IT_Update, ENABLE);
  34:../Work/Sources/timer6.c ****   */
  35:../Work/Sources/timer6.c **** 
  36:../Work/Sources/timer6.c ****   //uart_print_string(USART1, "TIM6 initialized!", 1);
  37:../Work/Sources/timer6.c ****   //uart_print_string(USART1, "TIM_TimeBaseStructure.TIM_Prescaler: ", 0);
  38:../Work/Sources/timer6.c ****   //uart_print_value(USART1, TIM_TimeBaseStructure.TIM_Prescaler);
  39:../Work/Sources/timer6.c ****   //uart_print_string(USART1, "", 1);
  40:../Work/Sources/timer6.c **** }
  43              		.loc 1 40 0
  44 0010 80BD     		pop	{r7, pc}
  45              		.cfi_endproc
  46              	.LFE29:
  48 0012 00BF     		.section	.text.NVIC_Configuration_TIM6,"ax",%progbits
  49              		.align	2
  50              		.global	NVIC_Configuration_TIM6
  51              		.thumb
  52              		.thumb_func
  54              	NVIC_Configuration_TIM6:
  55              	.LFB30:
  41:../Work/Sources/timer6.c **** 
  42:../Work/Sources/timer6.c **** void NVIC_Configuration_TIM6(void)
  43:../Work/Sources/timer6.c **** {
  56              		.loc 1 43 0
  57              		.cfi_startproc
  58              		@ args = 0, pretend = 0, frame = 8
  59              		@ frame_needed = 1, uses_anonymous_args = 0
  60 0000 80B5     		push	{r7, lr}
  61              	.LCFI2:
  62              		.cfi_def_cfa_offset 8
  63              		.cfi_offset 7, -8
  64              		.cfi_offset 14, -4
  65 0002 82B0     		sub	sp, sp, #8
  66              	.LCFI3:
  67              		.cfi_def_cfa_offset 16
  68 0004 00AF     		add	r7, sp, #0
  69              	.LCFI4:
  70              		.cfi_def_cfa_register 7
  44:../Work/Sources/timer6.c **** 	//configure NVIC
  45:../Work/Sources/timer6.c **** 	NVIC_InitTypeDef NVIC_InitStructure;
  46:../Work/Sources/timer6.c **** 
  47:../Work/Sources/timer6.c **** 	NVIC_PriorityGroupConfig(NVIC_PriorityGroup_4);
  71              		.loc 1 47 0
  72 0006 4FF44070 		mov	r0, #768
  73 000a FFF7FEFF 		bl	NVIC_PriorityGroupConfig
  48:../Work/Sources/timer6.c **** 
  49:../Work/Sources/timer6.c **** 	//select NVIC channel to configure
  50:../Work/Sources/timer6.c **** 	NVIC_InitStructure.NVIC_IRQChannel = TIM6_DAC_IRQn;
  74              		.loc 1 50 0
  75 000e 4FF03603 		mov	r3, #54
  76 0012 3B71     		strb	r3, [r7, #4]
  51:../Work/Sources/timer6.c **** 	//set priority to lowest
  52:../Work/Sources/timer6.c **** 	NVIC_InitStructure.NVIC_IRQChannelPreemptionPriority = 0;//configLIBRARY_LOWEST_INTERRUPT_PRIORITY
  77              		.loc 1 52 0
  78 0014 4FF00003 		mov	r3, #0
  79 0018 7B71     		strb	r3, [r7, #5]
  53:../Work/Sources/timer6.c **** 	//set subpriority to lowest
  54:../Work/Sources/timer6.c **** 	NVIC_InitStructure.NVIC_IRQChannelSubPriority = 15;//configLIBRARY_LOWEST_INTERRUPT_PRIORITY;
  80              		.loc 1 54 0
  81 001a 4FF00F03 		mov	r3, #15
  82 001e BB71     		strb	r3, [r7, #6]
  55:../Work/Sources/timer6.c **** 	//enable IRQ channel
  56:../Work/Sources/timer6.c **** 	NVIC_InitStructure.NVIC_IRQChannelCmd = ENABLE;
  83              		.loc 1 56 0
  84 0020 4FF00103 		mov	r3, #1
  85 0024 FB71     		strb	r3, [r7, #7]
  57:../Work/Sources/timer6.c **** 	//update NVIC registers
  58:../Work/Sources/timer6.c **** 	NVIC_Init(&NVIC_InitStructure);
  86              		.loc 1 58 0
  87 0026 07F10403 		add	r3, r7, #4
  88 002a 1846     		mov	r0, r3
  89 002c FFF7FEFF 		bl	NVIC_Init
  59:../Work/Sources/timer6.c **** }
  90              		.loc 1 59 0
  91 0030 07F10807 		add	r7, r7, #8
  92 0034 BD46     		mov	sp, r7
  93 0036 80BD     		pop	{r7, pc}
  94              		.cfi_endproc
  95              	.LFE30:
  97              		.global	delay_end
  98              		.section	.bss.delay_end,"aw",%nobits
 101              	delay_end:
 102 0000 00       		.space	1
 103              		.section	.text.TIM6_DAC_IRQHandler,"ax",%progbits
 104              		.align	2
 105              		.global	TIM6_DAC_IRQHandler
 106              		.thumb
 107              		.thumb_func
 109              	TIM6_DAC_IRQHandler:
 110              	.LFB31:
  60:../Work/Sources/timer6.c **** 
  61:../Work/Sources/timer6.c **** volatile uint8_t delay_end = 0;
  62:../Work/Sources/timer6.c **** 
  63:../Work/Sources/timer6.c **** void TIM6_DAC_IRQHandler()
  64:../Work/Sources/timer6.c **** {
 111              		.loc 1 64 0
 112              		.cfi_startproc
 113              		@ args = 0, pretend = 0, frame = 0
 114              		@ frame_needed = 1, uses_anonymous_args = 0
 115 0000 80B5     		push	{r7, lr}
 116              	.LCFI5:
 117              		.cfi_def_cfa_offset 8
 118              		.cfi_offset 7, -8
 119              		.cfi_offset 14, -4
 120 0002 00AF     		add	r7, sp, #0
 121              	.LCFI6:
 122              		.cfi_def_cfa_register 7
  65:../Work/Sources/timer6.c ****   /* Так как этот обработчик вызывается и для ЦАП, нужно 
  66:../Work/Sources/timer6.c ****    * произошло ли прерывание по переполнению счётчика т
  67:../Work/Sources/timer6.c ****    */
  68:../Work/Sources/timer6.c **** 	if(TIM_GetITStatus(TIM6, TIM_FLAG_Update)!=RESET)
 123              		.loc 1 68 0
 124 0004 4FF48050 		mov	r0, #4096
 125 0008 C4F20000 		movt	r0, 16384
 126 000c 4FF00101 		mov	r1, #1
 127 0010 FFF7FEFF 		bl	TIM_GetITStatus
 128 0014 0346     		mov	r3, r0
 129 0016 002B     		cmp	r3, #0
 130 0018 1ED0     		beq	.L3
  69:../Work/Sources/timer6.c **** 	  {
  70:../Work/Sources/timer6.c **** 	   TIM_ClearITPendingBit(TIM6, TIM_FLAG_Update);
 131              		.loc 1 70 0
 132 001a 4FF48050 		mov	r0, #4096
 133 001e C4F20000 		movt	r0, 16384
 134 0022 4FF00101 		mov	r1, #1
 135 0026 FFF7FEFF 		bl	TIM_ClearITPendingBit
  71:../Work/Sources/timer6.c **** 	   TIM_Cmd(TIM6, DISABLE);
 136              		.loc 1 71 0
 137 002a 4FF48050 		mov	r0, #4096
 138 002e C4F20000 		movt	r0, 16384
 139 0032 4FF00001 		mov	r1, #0
 140 0036 FFF7FEFF 		bl	TIM_Cmd
  72:../Work/Sources/timer6.c **** 	   TIM_SetCounter(TIM6, 0);
 141              		.loc 1 72 0
 142 003a 4FF48050 		mov	r0, #4096
 143 003e C4F20000 		movt	r0, 16384
 144 0042 4FF00001 		mov	r1, #0
 145 0046 FFF7FEFF 		bl	TIM_SetCounter
  73:../Work/Sources/timer6.c **** 	   delay_end = 1;
 146              		.loc 1 73 0
 147 004a 40F20003 		movw	r3, #:lower16:delay_end
 148 004e C0F20003 		movt	r3, #:upper16:delay_end
 149 0052 4FF00102 		mov	r2, #1
 150 0056 1A70     		strb	r2, [r3, #0]
 151              	.L3:
  74:../Work/Sources/timer6.c **** 	  }
  75:../Work/Sources/timer6.c **** }
 152              		.loc 1 75 0
 153 0058 80BD     		pop	{r7, pc}
 154              		.cfi_endproc
 155              	.LFE31:
 157 005a 00BF     		.section	.text.delay_ms,"ax",%progbits
 158              		.align	2
 159              		.global	delay_ms
 160              		.thumb
 161              		.thumb_func
 163              	delay_ms:
 164              	.LFB32:
  76:../Work/Sources/timer6.c **** 
  77:../Work/Sources/timer6.c **** void delay_ms(uint16_t delay)
  78:../Work/Sources/timer6.c **** {
 165              		.loc 1 78 0
 166              		.cfi_startproc
 167              		@ args = 0, pretend = 0, frame = 8
 168              		@ frame_needed = 1, uses_anonymous_args = 0
 169              		@ link register save eliminated.
 170 0000 80B4     		push	{r7}
 171              	.LCFI7:
 172              		.cfi_def_cfa_offset 4
 173              		.cfi_offset 7, -4
 174 0002 83B0     		sub	sp, sp, #12
 175              	.LCFI8:
 176              		.cfi_def_cfa_offset 16
 177 0004 00AF     		add	r7, sp, #0
 178              	.LCFI9:
 179              		.cfi_def_cfa_register 7
 180 0006 0346     		mov	r3, r0
 181 0008 FB80     		strh	r3, [r7, #6]	@ movhi
  79:../Work/Sources/timer6.c **** 	 TIM6->PSC = (SYS_CLK / PRESCALER_TIM_FREQUENCY)*1000 - 1;
 182              		.loc 1 79 0
 183 000a 4FF48053 		mov	r3, #4096
 184 000e C4F20003 		movt	r3, 16384
 185 0012 40F20002 		movw	r2, #:lower16:SystemCoreClock
 186 0016 C0F20002 		movt	r2, #:upper16:SystemCoreClock
 187 001a 1168     		ldr	r1, [r2, #0]
 188 001c 4DF68362 		movw	r2, #56963
 189 0020 C4F21B32 		movt	r2, 17179
 190 0024 A2FB0102 		umull	r0, r2, r2, r1
 191 0028 4FEA9242 		lsr	r2, r2, #18
 192 002c 92B2     		uxth	r2, r2
 193 002e 1146     		mov	r1, r2	@ movhi
 194 0030 4FEA4111 		lsl	r1, r1, #5
 195 0034 891A     		subs	r1, r1, r2
 196 0036 4FEA8101 		lsl	r1, r1, #2
 197 003a 8A18     		adds	r2, r1, r2
 198 003c 4FEAC202 		lsl	r2, r2, #3
 199 0040 92B2     		uxth	r2, r2
 200 0042 02F1FF32 		add	r2, r2, #-1
 201 0046 92B2     		uxth	r2, r2
 202 0048 1A85     		strh	r2, [r3, #40]	@ movhi
  80:../Work/Sources/timer6.c **** 	 TIM6->ARR = delay;
 203              		.loc 1 80 0
 204 004a 4FF48053 		mov	r3, #4096
 205 004e C4F20003 		movt	r3, 16384
 206 0052 FA88     		ldrh	r2, [r7, #6]	@ movhi
 207 0054 9A85     		strh	r2, [r3, #44]	@ movhi
  81:../Work/Sources/timer6.c **** 	 TIM6->EGR |= TIM_EGR_UG;
 208              		.loc 1 81 0
 209 0056 4FF48053 		mov	r3, #4096
 210 005a C4F20003 		movt	r3, 16384
 211 005e 4FF48052 		mov	r2, #4096
 212 0062 C4F20002 		movt	r2, 16384
 213 0066 928A     		ldrh	r2, [r2, #20]	@ movhi
 214 0068 92B2     		uxth	r2, r2
 215 006a 42F00102 		orr	r2, r2, #1
 216 006e 92B2     		uxth	r2, r2
 217 0070 9A82     		strh	r2, [r3, #20]	@ movhi
  82:../Work/Sources/timer6.c ****      TIM6->CR1 |= TIM_CR1_CEN|TIM_CR1_OPM;
 218              		.loc 1 82 0
 219 0072 4FF48053 		mov	r3, #4096
 220 0076 C4F20003 		movt	r3, 16384
 221 007a 4FF48052 		mov	r2, #4096
 222 007e C4F20002 		movt	r2, 16384
 223 0082 1288     		ldrh	r2, [r2, #0]	@ movhi
 224 0084 92B2     		uxth	r2, r2
 225 0086 42F00902 		orr	r2, r2, #9
 226 008a 92B2     		uxth	r2, r2
 227 008c 1A80     		strh	r2, [r3, #0]	@ movhi
  83:../Work/Sources/timer6.c ****      while ((TIM6->CR1 & TIM_CR1_CEN)!=0);
 228              		.loc 1 83 0
 229 008e 00BF     		nop
 230              	.L6:
 231              		.loc 1 83 0 is_stmt 0 discriminator 1
 232 0090 4FF48053 		mov	r3, #4096
 233 0094 C4F20003 		movt	r3, 16384
 234 0098 1B88     		ldrh	r3, [r3, #0]	@ movhi
 235 009a 9BB2     		uxth	r3, r3
 236 009c 03F00103 		and	r3, r3, #1
 237 00a0 002B     		cmp	r3, #0
 238 00a2 F5D1     		bne	.L6
  84:../Work/Sources/timer6.c **** }
 239              		.loc 1 84 0 is_stmt 1
 240 00a4 07F10C07 		add	r7, r7, #12
 241 00a8 BD46     		mov	sp, r7
 242 00aa 80BC     		pop	{r7}
 243 00ac 7047     		bx	lr
 244              		.cfi_endproc
 245              	.LFE32:
 247 00ae 00BF     		.section	.text.delay_us,"ax",%progbits
 248              		.align	2
 249              		.global	delay_us
 250              		.thumb
 251              		.thumb_func
 253              	delay_us:
 254              	.LFB33:
  85:../Work/Sources/timer6.c **** 
  86:../Work/Sources/timer6.c **** void delay_us(uint16_t delay)
  87:../Work/Sources/timer6.c **** {
 255              		.loc 1 87 0
 256              		.cfi_startproc
 257              		@ args = 0, pretend = 0, frame = 8
 258              		@ frame_needed = 1, uses_anonymous_args = 0
 259              		@ link register save eliminated.
 260 0000 80B4     		push	{r7}
 261              	.LCFI10:
 262              		.cfi_def_cfa_offset 4
 263              		.cfi_offset 7, -4
 264 0002 83B0     		sub	sp, sp, #12
 265              	.LCFI11:
 266              		.cfi_def_cfa_offset 16
 267 0004 00AF     		add	r7, sp, #0
 268              	.LCFI12:
 269              		.cfi_def_cfa_register 7
 270 0006 0346     		mov	r3, r0
 271 0008 FB80     		strh	r3, [r7, #6]	@ movhi
  88:../Work/Sources/timer6.c **** 	TIM6->PSC = (SYS_CLK / PRESCALER_TIM_FREQUENCY) - 1;
 272              		.loc 1 88 0
 273 000a 4FF48053 		mov	r3, #4096
 274 000e C4F20003 		movt	r3, 16384
 275 0012 40F20002 		movw	r2, #:lower16:SystemCoreClock
 276 0016 C0F20002 		movt	r2, #:upper16:SystemCoreClock
 277 001a 1168     		ldr	r1, [r2, #0]
 278 001c 4DF68362 		movw	r2, #56963
 279 0020 C4F21B32 		movt	r2, 17179
 280 0024 A2FB0102 		umull	r0, r2, r2, r1
 281 0028 4FEA9242 		lsr	r2, r2, #18
 282 002c 92B2     		uxth	r2, r2
 283 002e 02F1FF32 		add	r2, r2, #-1
 284 0032 92B2     		uxth	r2, r2
 285 0034 1A85     		strh	r2, [r3, #40]	@ movhi
  89:../Work/Sources/timer6.c **** 	TIM6->ARR = delay;
 286              		.loc 1 89 0
 287 0036 4FF48053 		mov	r3, #4096
 288 003a C4F20003 		movt	r3, 16384
 289 003e FA88     		ldrh	r2, [r7, #6]	@ movhi
 290 0040 9A85     		strh	r2, [r3, #44]	@ movhi
  90:../Work/Sources/timer6.c **** 	TIM6->EGR |= TIM_EGR_UG;
 291              		.loc 1 90 0
 292 0042 4FF48053 		mov	r3, #4096
 293 0046 C4F20003 		movt	r3, 16384
 294 004a 4FF48052 		mov	r2, #4096
 295 004e C4F20002 		movt	r2, 16384
 296 0052 928A     		ldrh	r2, [r2, #20]	@ movhi
 297 0054 92B2     		uxth	r2, r2
 298 0056 42F00102 		orr	r2, r2, #1
 299 005a 92B2     		uxth	r2, r2
 300 005c 9A82     		strh	r2, [r3, #20]	@ movhi
  91:../Work/Sources/timer6.c **** 	TIM6->CR1 |= TIM_CR1_CEN|TIM_CR1_OPM;
 301              		.loc 1 91 0
 302 005e 4FF48053 		mov	r3, #4096
 303 0062 C4F20003 		movt	r3, 16384
 304 0066 4FF48052 		mov	r2, #4096
 305 006a C4F20002 		movt	r2, 16384
 306 006e 1288     		ldrh	r2, [r2, #0]	@ movhi
 307 0070 92B2     		uxth	r2, r2
 308 0072 42F00902 		orr	r2, r2, #9
 309 0076 92B2     		uxth	r2, r2
 310 0078 1A80     		strh	r2, [r3, #0]	@ movhi
  92:../Work/Sources/timer6.c ****     while ((TIM6->CR1 & TIM_CR1_CEN)!=0);
 311              		.loc 1 92 0
 312 007a 00BF     		nop
 313              	.L8:
 314              		.loc 1 92 0 is_stmt 0 discriminator 1
 315 007c 4FF48053 		mov	r3, #4096
 316 0080 C4F20003 		movt	r3, 16384
 317 0084 1B88     		ldrh	r3, [r3, #0]	@ movhi
 318 0086 9BB2     		uxth	r3, r3
 319 0088 03F00103 		and	r3, r3, #1
 320 008c 002B     		cmp	r3, #0
 321 008e F5D1     		bne	.L8
  93:../Work/Sources/timer6.c **** }
 322              		.loc 1 93 0 is_stmt 1
 323 0090 07F10C07 		add	r7, r7, #12
 324 0094 BD46     		mov	sp, r7
 325 0096 80BC     		pop	{r7}
 326 0098 7047     		bx	lr
 327              		.cfi_endproc
 328              	.LFE33:
 330 009a 00BF     		.text
 331              	.Letext0:
 332              		.file 2 "/home/frolls/ARM/gcc-arm-none-eabi-4_7-2012q4/bin/../lib/gcc/arm-none-eabi/4.7.3/../../..
 333              		.file 3 "/home/frolls/git/STM32_FreeRTOS_freeModBus/stm32vld_template/CMSIS/stm32f10x.h"
 334              		.file 4 "/home/frolls/git/STM32_FreeRTOS_freeModBus/stm32vld_template/StdPeripheralDriver/inc/misc
 335              		.file 5 "/home/frolls/git/STM32_FreeRTOS_freeModBus/stm32vld_template/CMSIS/core_cm3.h"
 336              		.file 6 "/home/frolls/git/STM32_FreeRTOS_freeModBus/stm32vld_template/CMSIS/system_stm32f10x.h"